(dp1
S'interests'
p2
(dp3
S'length'
p4
I512
sS'unique'
p5
I00
sS'sortable'
p6
I4
sS'sql'
p7
S'TEXT'
p8
sS'notnull'
p9
I00
sS'type'
p10
S'list:string'
p11
ssS'password'
p12
(dp13
S'sortable'
p14
I6
sS'sql'
p15
S'INTEGER REFERENCES auth_user (id) ON DELETE CASCADE'
p16
sS'length'
p17
I512
sS'notnull'
p18
I00
sS'unique'
p19
I00
sS'type'
p20
S'reference auth_user'
p21
ssS'requirements'
p22
(dp23
g4
I512
sg5
I00
sg6
I3
sg7
S'INTEGER REFERENCES Requirement (id) ON DELETE CASCADE'
p24
sg9
I00
sg10
S'reference Requirement'
p25
ssS'description'
p26
(dp27
S'sortable'
p28
I3
sS'sql'
p29
S'TEXT'
p30
sS'length'
p31
I32768
sS'notnull'
p32
I00
sS'unique'
p33
I00
sS'type'
p34
S'text'
p35
ssS'firstname'
p36
(dp37
g14
I4
sg15
S'INTEGER REFERENCES auth_user (id) ON DELETE CASCADE'
p38
sg17
I512
sg18
I00
sg19
I00
sg20
g21
ssS'gender'
p39
(dp40
g14
I11
sg15
S'INTEGER REFERENCES auth_user (id) ON DELETE CASCADE'
p41
sg17
I512
sg18
I00
sg19
I00
sg20
g21
ssS'age'
p42
(dp43
g14
I9
sg15
S'INTEGER REFERENCES auth_user (id) ON DELETE CASCADE'
p44
sg17
I512
sg18
I00
sg19
I00
sg20
g21
ssS'userid'
p45
(dp46
g4
I512
sg5
I00
sg6
I2
sg7
S'INTEGER REFERENCES auth_user (id) ON DELETE CASCADE'
p47
sg9
I00
sg10
S'reference auth_user'
p48
ssS'email'
p49
(dp50
g14
I3
sg15
S'INTEGER REFERENCES auth_user (id) ON DELETE CASCADE'
p51
sg17
I512
sg18
I00
sg19
I00
sg20
g21
ssS'phone'
p52
(dp53
g14
I10
sg15
S'INTEGER REFERENCES auth_user (id) ON DELETE CASCADE'
p54
sg17
I512
sg18
I00
sg19
I00
sg20
g21
ssS'profile_pict'
p55
(dp56
S'sortable'
p57
I7
sS'sql'
p58
S'CHAR(512)'
p59
sS'length'
p60
I512
sS'notnull'
p61
I00
sS'unique'
p62
I00
sS'type'
p63
S'upload'
p64
ssS'lastname'
p65
(dp66
g14
I5
sg15
S'INTEGER REFERENCES auth_user (id) ON DELETE CASCADE'
p67
sg17
I512
sg18
I00
sg19
I00
sg20
g21
ssS'profilepic'
p68
(dp69
g28
I4
sg29
S'CHAR(512)'
p70
sg31
I512
sg32
I00
sg33
I00
sg34
S'upload'
p71
ssS'id'
p72
(dp73
g4
I512
sg5
I00
sg6
I1
sg7
S'INTEGER PRIMARY KEY AUTOINCREMENT'
p74
sg9
I00
sg10
S'id'
p75
ss.