(dp1
S'experiencetype'
p2
(dp3
S'length'
p4
I512
sS'unique'
p5
I00
sS'sortable'
p6
I2
sS'sql'
p7
S'INTEGER REFERENCES ExperienceRequirementType (id) ON DELETE CASCADE'
p8
sS'notnull'
p9
I00
sS'type'
p10
S'reference ExperienceRequirementType'
p11
ssS'details'
p12
(dp13
g4
I32768
sg5
I00
sg6
I6
sg7
S'TEXT'
p14
sg9
I00
sg10
S'text'
p15
ssS'qualification'
p16
(dp17
g4
I512
sg5
I00
sg6
I4
sg7
S'CHAR(512)'
p18
sg9
I00
sg10
S'string'
p19
ssS'userid'
p20
(dp21
g4
I512
sg5
I00
sg6
I3
sg7
S'INTEGER REFERENCES auth_user (id) ON DELETE CASCADE'
p22
sg9
I00
sg10
S'reference auth_user'
p23
ssS'period'
p24
(dp25
g4
I512
sg5
I00
sg6
I5
sg7
S'INTEGER'
p26
sg9
I00
sg10
S'integer'
p27
ssS'id'
p28
(dp29
g4
I512
sg5
I00
sg6
I1
sg7
S'INTEGER PRIMARY KEY AUTOINCREMENT'
p30
sg9
I00
sg10
S'id'
p31
ss.