(dp1
S'username'
p2
(dp3
S'length'
p4
I512
sS'unique'
p5
I00
sS'sortable'
p6
I2
sS'sql'
p7
S'CHAR(512)'
p8
sS'notnull'
p9
I00
sS'type'
p10
S'string'
p11
ssS'firstname'
p12
(dp13
g4
I512
sg5
I00
sg6
I3
sg7
S'CHAR(512)'
p14
sg9
I00
sg10
g11
ssS'usertype'
p15
(dp16
g4
I512
sg5
I00
sg6
I11
sg7
S'CHAR(512)'
p17
sg9
I00
sg10
g11
ssS'last name'
p18
(dp19
S'sortable'
p20
I4
sS'sql'
p21
S'CHAR(512)'
p22
sS'length'
p23
I512
sS'notnull'
p24
I00
sS'unique'
p25
I00
sS'type'
p26
S'string'
p27
ssS'lastname'
p28
(dp29
g4
I512
sg5
I00
sg6
I4
sg7
S'CHAR(512)'
p30
sg9
I00
sg10
g11
ssS'age'
p31
(dp32
g4
I512
sg5
I00
sg6
I8
sg7
S'INTEGER'
p33
sg9
I00
sg10
S'integer'
p34
ssS'profilepict'
p35
(dp36
g4
I512
sg5
I00
sg6
I10
sg7
S'CHAR(512)'
p37
sg9
I00
sg10
S'upload'
p38
ssS'joined'
p39
(dp40
S'sortable'
p41
I5
sS'sql'
p42
S'TIMESTAMP'
p43
sS'length'
p44
I512
sS'notnull'
p45
I00
sS'unique'
p46
I00
sS'type'
p47
S'datetime'
p48
ssS'user name'
p49
(dp50
g20
I2
sg21
S'CHAR(512)'
p51
sg23
I512
sg24
I00
sg25
I00
sg26
g27
ssS'phone'
p52
(dp53
g4
I512
sg5
I00
sg6
I6
sg7
S'INTEGER'
p54
sg9
I00
sg10
g34
ssS'gender'
p55
(dp56
g4
I512
sg5
I00
sg6
I9
sg7
S'CHAR(512)'
p57
sg9
I00
sg10
g11
ssS'id'
p58
(dp59
g4
I512
sg5
I00
sg6
I1
sg7
S'INTEGER PRIMARY KEY AUTOINCREMENT'
p60
sg9
I00
sg10
S'id'
p61
ssS'password'
p62
(dp63
g4
I512
sg5
I00
sg6
I5
sg7
S'CHAR(512)'
p64
sg9
I00
sg10
g11
ssS'email'
p65
(dp66
g4
I512
sg5
I00
sg6
I7
sg7
S'CHAR(512)'
p67
sg9
I00
sg10
g11
ssS'first name'
p68
(dp69
g20
I3
sg21
S'CHAR(512)'
p70
sg23
I512
sg24
I00
sg25
I00
sg26
g27
ss.