(dp1
S'username'
p2
(dp3
S'length'
p4
I128
sS'unique'
p5
I00
sS'sortable'
p6
I5
sS'sql'
p7
S'CHAR(128)'
p8
sS'notnull'
p9
I00
sS'type'
p10
S'string'
p11
ssS'last_name'
p12
(dp13
g4
I128
sg5
I00
sg6
I3
sg7
S'CHAR(128)'
p14
sg9
I00
sg10
g11
ssS'age'
p15
(dp16
g4
I512
sg5
I00
sg6
I11
sg7
S'INTEGER'
p17
sg9
I00
sg10
S'integer'
p18
ssS'user_type'
p19
(dp20
g4
I512
sg5
I00
sg6
I13
sg7
S'CHAR(512)'
p21
sg9
I00
sg10
g11
ssS'phone'
p22
(dp23
g4
I512
sg5
I00
sg6
I10
sg7
S'INTEGER'
p24
sg9
I00
sg10
g18
ssS'password'
p25
(dp26
g4
I512
sg5
I00
sg6
I6
sg7
S'CHAR(512)'
p27
sg9
I00
sg10
S'password'
p28
ssS'id'
p29
(dp30
g4
I512
sg5
I00
sg6
I1
sg7
S'INTEGER PRIMARY KEY AUTOINCREMENT'
p31
sg9
I00
sg10
S'id'
p32
ssS'mypict'
p33
(dp34
g4
I512
sg5
I00
sg6
I14
sg7
S'CHAR(512)'
p35
sg9
I00
sg10
S'upload'
p36
ssS'registration_id'
p37
(dp38
g4
I512
sg5
I00
sg6
I9
sg7
S'CHAR(512)'
p39
sg9
I00
sg10
g11
ssS'registration_key'
p40
(dp41
g4
I512
sg5
I00
sg6
I7
sg7
S'CHAR(512)'
p42
sg9
I00
sg10
g11
ssS'profile_pict'
p43
(dp44
S'sortable'
p45
I13
sS'sql'
p46
S'CHAR(512)'
p47
sS'length'
p48
I512
sS'notnull'
p49
I00
sS'unique'
p50
I00
sS'type'
p51
S'upload'
p52
ssS'reset_password_key'
p53
(dp54
g4
I512
sg5
I00
sg6
I8
sg7
S'CHAR(512)'
p55
sg9
I00
sg10
g11
ssS'gender'
p56
(dp57
g4
I512
sg5
I00
sg6
I12
sg7
S'CHAR(512)'
p58
sg9
I00
sg10
g11
ssS'aboutme'
p59
(dp60
g4
I32768
sg5
I00
sg6
I15
sg7
S'TEXT'
p61
sg9
I00
sg10
S'text'
p62
ssS'profilepict'
p63
(dp64
S'sortable'
p65
I12
sS'sql'
p66
S'CHAR(512)'
p67
sS'length'
p68
I512
sS'notnull'
p69
I00
sS'unique'
p70
I00
sS'type'
p71
S'upload'
p72
ssS'usertype'
p73
(dp74
g65
I13
sg66
S'CHAR(512)'
p75
sg68
I512
sg69
I00
sg70
I00
sg71
S'string'
p76
ssS'first_name'
p77
(dp78
g4
I128
sg5
I00
sg6
I2
sg7
S'CHAR(128)'
p79
sg9
I00
sg10
g11
ssS'email'
p80
(dp81
g4
I512
sg5
I00
sg6
I4
sg7
S'CHAR(512)'
p82
sg9
I00
sg10
g11
ss.