(dp1
S'interests'
p2
(dp3
S'length'
p4
I512
sS'unique'
p5
I00
sS'sortable'
p6
I4
sS'sql'
p7
S'TEXT'
p8
sS'notnull'
p9
I00
sS'type'
p10
S'list:string'
p11
ssS'description'
p12
(dp13
S'sortable'
p14
I3
sS'sql'
p15
S'TEXT'
p16
sS'length'
p17
I32768
sS'notnull'
p18
I00
sS'unique'
p19
I00
sS'type'
p20
S'text'
p21
ssS'firstname'
p22
(dp23
S'sortable'
p24
I4
sS'sql'
p25
S'INTEGER REFERENCES auth_user (id) ON DELETE CASCADE'
p26
sS'length'
p27
I512
sS'notnull'
p28
I00
sS'unique'
p29
I00
sS'type'
p30
S'reference auth_user'
p31
ssS'lastname'
p32
(dp33
g24
I5
sg25
S'INTEGER REFERENCES auth_user (id) ON DELETE CASCADE'
p34
sg27
I512
sg28
I00
sg29
I00
sg30
g31
ssS'phone'
p35
(dp36
S'sortable'
p37
I11
sS'sql'
p38
S'INTEGER REFERENCES auth_user (id) ON DELETE CASCADE'
p39
sS'length'
p40
I512
sS'notnull'
p41
I00
sS'unique'
p42
I00
sS'type'
p43
S'reference auth_user'
p44
ssS'password'
p45
(dp46
g24
I6
sg25
S'INTEGER REFERENCES auth_user (id) ON DELETE CASCADE'
p47
sg27
I512
sg28
I00
sg29
I00
sg30
g31
ssS'id'
p48
(dp49
g4
I512
sg5
I00
sg6
I1
sg7
S'INTEGER PRIMARY KEY AUTOINCREMENT'
p50
sg9
I00
sg10
S'id'
p51
ssS'users'
p52
(dp53
S'sortable'
p54
I2
sS'sql'
p55
S'INTEGER REFERENCES auth_user (id) ON DELETE CASCADE'
p56
sS'length'
p57
I512
sS'notnull'
p58
I00
sS'unique'
p59
I00
sS'type'
p60
S'reference auth_user'
p61
ssS'profile_pict'
p62
(dp63
S'sortable'
p64
I8
sS'sql'
p65
S'CHAR(512)'
p66
sS'length'
p67
I512
sS'notnull'
p68
I00
sS'unique'
p69
I00
sS'type'
p70
S'upload'
p71
ssS'gender'
p72
(dp73
g24
I12
sg25
S'INTEGER REFERENCES auth_user (id) ON DELETE CASCADE'
p74
sg27
I512
sg28
I00
sg29
I00
sg30
g31
ssS'age'
p75
(dp76
g24
I10
sg25
S'INTEGER REFERENCES auth_user (id) ON DELETE CASCADE'
p77
sg27
I512
sg28
I00
sg29
I00
sg30
g31
ssS'userid'
p78
(dp79
g4
I512
sg5
I00
sg6
I2
sg7
S'INTEGER REFERENCES auth_user (id) ON DELETE CASCADE'
p80
sg9
I00
sg10
S'reference auth_user'
p81
ssS'experience'
p82
(dp83
g4
I512
sg5
I00
sg6
I3
sg7
S'INTEGER REFERENCES Experience (id) ON DELETE CASCADE'
p84
sg9
I00
sg10
S'reference Experience'
p85
ssS'cv'
p86
(dp87
g4
I512
sg5
I00
sg6
I5
sg7
S'CHAR(512)'
p88
sg9
I00
sg10
S'upload'
p89
ssS'contact'
p90
(dp91
g24
I11
sg25
S'INTEGER REFERENCES auth_user (id) ON DELETE CASCADE'
p92
sg27
I512
sg28
I00
sg29
I00
sg30
g31
ssS'profilepic'
p93
(dp94
g14
I5
sg15
S'CHAR(512)'
p95
sg17
I512
sg18
I00
sg19
I00
sg20
S'upload'
p96
ssS'email'
p97
(dp98
g24
I3
sg25
S'INTEGER REFERENCES auth_user (id) ON DELETE CASCADE'
p99
sg27
I512
sg28
I00
sg29
I00
sg30
g31
ss.