(dp1
S'RMID'
p2
(dp3
S'length'
p4
I512
sS'unique'
p5
I00
sS'sortable'
p6
I3
sS'sql'
p7
S'INTEGER REFERENCES RatingMetric (id) ON DELETE CASCADE'
p8
sS'notnull'
p9
I00
sS'type'
p10
S'reference RatingMetric'
p11
ssS'URID'
p12
(dp13
g4
I512
sg5
I00
sg6
I2
sg7
S'INTEGER REFERENCES UserRating (id) ON DELETE CASCADE'
p14
sg9
I00
sg10
S'reference UserRating'
p15
ssS'Score'
p16
(dp17
g4
I512
sg5
I00
sg6
I4
sg7
S'INTEGER'
p18
sg9
I00
sg10
S'integer'
p19
ssS'id'
p20
(dp21
g4
I512
sg5
I00
sg6
I1
sg7
S'INTEGER PRIMARY KEY AUTOINCREMENT'
p22
sg9
I00
sg10
g20
ss.