(dp1
S'Opinions'
p2
(dp3
S'length'
p4
I32768
sS'unique'
p5
I00
sS'sortable'
p6
I8
sS'sql'
p7
S'TEXT'
p8
sS'notnull'
p9
I00
sS'type'
p10
S'text'
p11
ssS'Overall'
p12
(dp13
g4
I512
sg5
I00
sg6
I4
sg7
S'INTEGER'
p14
sg9
I00
sg10
S'integer'
p15
ssS'Reliability'
p16
(dp17
g4
I512
sg5
I00
sg6
I5
sg7
S'INTEGER'
p18
sg9
I00
sg10
g15
ssS'toUser'
p19
(dp20
g4
I512
sg5
I00
sg6
I3
sg7
S'INTEGER REFERENCES auth_user (id) ON DELETE CASCADE'
p21
sg9
I00
sg10
S'reference auth_user'
p22
ssS'Punctuality'
p23
(dp24
g4
I512
sg5
I00
sg6
I6
sg7
S'INTEGER'
p25
sg9
I00
sg10
g15
ssS'fromUser'
p26
(dp27
g4
I512
sg5
I00
sg6
I2
sg7
S'INTEGER REFERENCES auth_user (id) ON DELETE CASCADE'
p28
sg9
I00
sg10
g22
ssS'id'
p29
(dp30
g4
I512
sg5
I00
sg6
I1
sg7
S'INTEGER PRIMARY KEY AUTOINCREMENT'
p31
sg9
I00
sg10
g29
ssS'Personality'
p32
(dp33
g4
I512
sg5
I00
sg6
I7
sg7
S'INTEGER'
p34
sg9
I00
sg10
g15
ss.