(dp1
S'description'
p2
(dp3
S'length'
p4
I32768
sS'unique'
p5
I00
sS'sortable'
p6
I7
sS'sql'
p7
S'TEXT'
p8
sS'notnull'
p9
I00
sS'type'
p10
S'text'
p11
ssS'profile_pict'
p12
(dp13
g4
I512
sg5
I00
sg6
I8
sg7
S'INTEGER REFERENCES auth_user (id) ON DELETE CASCADE'
p14
sg9
I00
sg10
S'reference auth_user'
p15
ssS'firstname'
p16
(dp17
g4
I512
sg5
I00
sg6
I3
sg7
S'INTEGER REFERENCES auth_user (id) ON DELETE CASCADE'
p18
sg9
I00
sg10
S'reference auth_user'
p19
ssS'lastname'
p20
(dp21
g4
I512
sg5
I00
sg6
I4
sg7
S'INTEGER REFERENCES auth_user (id) ON DELETE CASCADE'
p22
sg9
I00
sg10
S'reference auth_user'
p23
ssS'age'
p24
(dp25
g4
I512
sg5
I00
sg6
I9
sg7
S'INTEGER REFERENCES auth_user (id) ON DELETE CASCADE'
p26
sg9
I00
sg10
S'reference auth_user'
p27
ssS'cv'
p28
(dp29
g4
I512
sg5
I00
sg6
I6
sg7
S'CHAR(512)'
p30
sg9
I00
sg10
S'upload'
p31
ssS'email'
p32
(dp33
g4
I512
sg5
I00
sg6
I2
sg7
S'INTEGER REFERENCES auth_user (id) ON DELETE CASCADE'
p34
sg9
I00
sg10
S'reference auth_user'
p35
ssS'gender'
p36
(dp37
S'sortable'
p38
I10
sS'sql'
p39
S'INTEGER REFERENCES auth_user (id) ON DELETE CASCADE'
p40
sS'length'
p41
I512
sS'notnull'
p42
I00
sS'unique'
p43
I00
sS'type'
p44
S'reference auth_user'
p45
ssS'password'
p46
(dp47
g4
I512
sg5
I00
sg6
I5
sg7
S'INTEGER REFERENCES auth_user (id) ON DELETE CASCADE'
p48
sg9
I00
sg10
S'reference auth_user'
p49
ssS'id'
p50
(dp51
g4
I512
sg5
I00
sg6
I1
sg7
S'INTEGER PRIMARY KEY AUTOINCREMENT'
p52
sg9
I00
sg10
S'id'
p53
ss.