(dp1
S'myuserid'
p2
(dp3
S'length'
p4
I512
sS'unique'
p5
I00
sS'sortable'
p6
I3
sS'sql'
p7
S'INTEGER REFERENCES auth_user (id) ON DELETE CASCADE'
p8
sS'notnull'
p9
I00
sS'type'
p10
S'reference auth_user'
p11
ssS'qualification'
p12
(dp13
g4
I512
sg5
I00
sg6
I5
sg7
S'CHAR(512)'
p14
sg9
I00
sg10
S'string'
p15
ssS'gender'
p16
(dp17
g4
I512
sg5
I00
sg6
I4
sg7
S'CHAR(512)'
p18
sg9
I00
sg10
g15
ssS'availability'
p19
(dp20
g4
I512
sg5
I00
sg6
I7
sg7
S'INTEGER'
p21
sg9
I00
sg10
S'integer'
p22
ssS'period'
p23
(dp24
g4
I512
sg5
I00
sg6
I6
sg7
S'INTEGER'
p25
sg9
I00
sg10
g22
ssS'requirementtype'
p26
(dp27
g4
I512
sg5
I00
sg6
I2
sg7
S'INTEGER REFERENCES ExperienceRequirementType (id) ON DELETE CASCADE'
p28
sg9
I00
sg10
S'reference ExperienceRequirementType'
p29
ssS'id'
p30
(dp31
g4
I512
sg5
I00
sg6
I1
sg7
S'INTEGER PRIMARY KEY AUTOINCREMENT'
p32
sg9
I00
sg10
S'id'
p33
ss.