(dp1
S'UserName'
p2
(dp3
S'length'
p4
I512
sS'unique'
p5
I00
sS'sortable'
p6
I2
sS'sql'
p7
S'CHAR(512)'
p8
sS'notnull'
p9
I00
sS'type'
p10
S'string'
p11
ssS'FirstName'
p12
(dp13
g4
I512
sg5
I00
sg6
I3
sg7
S'CHAR(512)'
p14
sg9
I00
sg10
g11
ssS'UserType'
p15
(dp16
g4
I512
sg5
I00
sg6
I11
sg7
S'CHAR(512)'
p17
sg9
I00
sg10
g11
ssS'LastName'
p18
(dp19
g4
I512
sg5
I00
sg6
I4
sg7
S'CHAR(512)'
p20
sg9
I00
sg10
g11
ssS'Age'
p21
(dp22
g4
I512
sg5
I00
sg6
I8
sg7
S'INTEGER'
p23
sg9
I00
sg10
S'integer'
p24
ssS'ProfilePict'
p25
(dp26
g4
I512
sg5
I00
sg6
I10
sg7
S'CHAR(512)'
p27
sg9
I00
sg10
S'upload'
p28
ssS'Email'
p29
(dp30
g4
I512
sg5
I00
sg6
I7
sg7
S'CHAR(512)'
p31
sg9
I00
sg10
g11
ssS'Phone'
p32
(dp33
g4
I512
sg5
I00
sg6
I6
sg7
S'INTEGER'
p34
sg9
I00
sg10
g24
ssS'Gender'
p35
(dp36
g4
I512
sg5
I00
sg6
I9
sg7
S'CHAR(512)'
p37
sg9
I00
sg10
g11
ssS'Password'
p38
(dp39
g4
I512
sg5
I00
sg6
I5
sg7
S'CHAR(512)'
p40
sg9
I00
sg10
g11
ssS'id'
p41
(dp42
g4
I512
sg5
I00
sg6
I1
sg7
S'INTEGER PRIMARY KEY AUTOINCREMENT'
p43
sg9
I00
sg10
g41
ss.