(dp1
S'output'
p2
S"<type 'exceptions.ValueError'> invalid literal for long() with base 10: 'Alisha2'"
p3
sS'layer'
p4
S'C:\\Users\\4524\\Documents\\web2py_win\\web2py\\applications\\CareSeek\\controllers/default.py'
p5
sS'code'
p6
S'# -*- coding: utf-8 -*-\n# this file is released under public domain and you can use without limitations\n\n#########################################################################\n## This is a sample controller\n## - index is the default action of any application\n## - user is required for authentication and authorization\n## - download is for downloading files uploaded in the db (does streaming)\n## - call exposes all registered services (none by default)\n#########################################################################\ndef index():\n    return dict()\ndef subscribe():\n    redirect \n    return \ndef about():\n    users=db(db.auth_user.id>0).select()\n    return dict(users=users)\ndef contact():\n    return dict()\ndef dashboard():\n    # find in the workwith table to see if they already have a connection or not\n    if auth.user.User_Type=="Carer":\n        subscribe=db((db.WorkWith.Carer==auth.user.username) & (db.WorkWith.CareSeeker==request.args(0))).select()\n    else:\n        subscribe=db((db.WorkWith.CareSeeker==auth.user.username) & (db.WorkWith.Carer==request.args(0))).select()\n    user = db(db.auth_user.id == request.args(0)).select().first()\n    return dict(user=user, subscribe=subscribe)\ndef feedback():\n    return dict()\n@auth.requires_login()\ndef myProfile():\n    return dict(form=auth.profile())\ndef mySchedule():\n    return dict()\ndef help():\n    return dict()\ndef settings():\n    return dict()\ndef search():\n    return dict()\ndef legal():\n    return dict()\ndef privacy():\n    return dict()\n\ndef user():\n    \n    """\n    exposes:\n    http://..../[app]/default/user/login\n    http://..../[app]/default/user/logout\n    http://..../[app]/default/user/register\n    http://..../[app]/default/user/profile\n    http://..../[app]/default/user/retrieve_password\n    http://..../[app]/default/user/change_password\n    http://..../[app]/default/user/manage_users (requires membership in\n    use @auth.requires_login()\n        @auth.requires_membership(\'group name\')\n        @auth.requires_permission(\'read\',\'table name\',record_id)\n    to decorate functions that need access control\n    """\n    auth.settings.formstyle = \'bootstrap\'\n    auth.settings.register_next = URL(\'dashboard\')\n    auth.settings.logged_url = URL(\'index\')\n\n    auth.settings.login_next = URL(\'dashboard\')\n    return dict(form=auth())\n\n@cache.action()\ndef download():\n    """\n    allows downloading of uploaded files\n    http://..../[app]/default/download/[filename]\n    """\n    return response.download(request, db)\n\n\ndef call():\n    """\n    exposes services. for example:\n    http://..../[app]/default/call/jsonrpc\n    decorate with @services.jsonrpc the functions to expose\n    supports xml, json, xmlrpc, jsonrpc, amfrpc, rss, csv\n    """\n    return service()\n\n\n@auth.requires_signature()\ndef data():\n    """\n    http://..../[app]/default/data/tables\n    http://..../[app]/default/data/create/[table]\n    http://..../[app]/default/data/read/[table]/[id]\n    http://..../[app]/default/data/update/[table]/[id]\n    http://..../[app]/default/data/delete/[table]/[id]\n    http://..../[app]/default/data/select/[table]\n    http://..../[app]/default/data/search/[table]\n    but URLs must be signed, i.e. linked with\n      A(\'table\',_href=URL(\'data/tables\',user_signature=True))\n    or with the signed load operator\n      LOAD(\'default\',\'data.load\',args=\'tables\',ajax=True,user_signature=True)\n    """\n    return dict(form=crud())\n\n\n# def loadProfile():\n#     pass\n\nresponse._vars=response._caller(dashboard)\n'
p7
sS'snapshot'
p8
(dp9
sS'traceback'
p10
S'Traceback (most recent call last):\n  File "/home/mdipierro/make_web2py/web2py/gluon/restricted.py", line 220, in restricted\n  File "C:\\Users\\4524\\Documents\\web2py_win\\web2py\\applications\\CareSeek\\controllers/default.py", line 110, in <module>\n  File "/home/mdipierro/make_web2py/web2py/gluon/globals.py", line 385, in <lambda>\n  File "C:\\Users\\4524\\Documents\\web2py_win\\web2py\\applications\\CareSeek\\controllers/default.py", line 24, in dashboard\n    subscribe=db((db.WorkWith.Carer==auth.user.username) & (db.WorkWith.CareSeeker==request.args(0))).select()\n  File "/home/mdipierro/make_web2py/web2py/gluon/dal.py", line 10525, in select\n  File "/home/mdipierro/make_web2py/web2py/gluon/dal.py", line 2458, in select\n  File "/home/mdipierro/make_web2py/web2py/gluon/dal.py", line 1869, in select\n  File "/home/mdipierro/make_web2py/web2py/gluon/dal.py", line 1774, in _select\n  File "/home/mdipierro/make_web2py/web2py/gluon/dal.py", line 1541, in expand\n  File "/home/mdipierro/make_web2py/web2py/gluon/dal.py", line 1381, in AND\n  File "/home/mdipierro/make_web2py/web2py/gluon/dal.py", line 1541, in expand\n  File "/home/mdipierro/make_web2py/web2py/gluon/dal.py", line 1438, in EQ\n  File "/home/mdipierro/make_web2py/web2py/gluon/dal.py", line 1552, in expand\n  File "/home/mdipierro/make_web2py/web2py/gluon/dal.py", line 2014, in represent\nValueError: invalid literal for long() with base 10: \'Alisha2\'\n'
p11
s.