(dp1
S'output'
p2
S'missing "pass" in view'
p3
sS'layer'
p4
S'ParserContainer'
p5
sS'code'
p6
S'response.write(\'<!-- saved from url=(0050)http://getbootstrap.com/examples/starter-template/ -->\\r\\n<html lang="en"><head><meta http-equiv="Content-Type" content="text/html; charset=UTF-8">\\r\\n    <meta charset="utf-8">\\r\\n    <meta http-equiv="X-UA-Compatible" content="IE=edge">\\r\\n    <meta name="viewport" content="width=device-width, initial-scale=1">\\r\\n    <meta name="description" content="">\\r\\n    <meta name="author" content="">\\r\\n    <link rel="shortcut icon" href="">\\r\\n    <title>CareSeek</title>\\r\\n    \\r\\n    <!-- Bootstrap core CSS -->\\r\\n    \', escape=False)\nresponse.files.append(URL(\'static\',\'bootstrap.min.css\'))\nresponse.write(\'\\r\\n    \', escape=False)\nresponse.files.append(URL(\'static/css\',\'bootstrap-tagsinput.css\'))\nresponse.write(\'\\r\\n    \', escape=False)\nresponse.write(\'<script type="text/javascript"><!--\\n    // These variables are used by the web2py_ajax_init function in web2py_ajax.js (which is loaded below).\\n    var w2p_ajax_confirm_message = "\', escape=False)\nresponse.write(T(\'Are you sure you want to delete this object?\'))\nresponse.write(\'";\\n    var w2p_ajax_disable_with_message = "\', escape=False)\nresponse.write(T(\'Working...\'))\nresponse.write(\'";\\n    var w2p_ajax_date_format = "\', escape=False)\nresponse.write(T(\'%Y-%m-%d\'))\nresponse.write(\'";\\n    var w2p_ajax_datetime_format = "\', escape=False)\nresponse.write(T(\'%Y-%m-%d %H:%M:%S\'))\nresponse.write(\'";\\n    var ajax_error_500 = \\\'\', escape=False)\nresponse.write(T.M(\'An error occured, please [[reload %s]] the page\') % URL(args=request.args, vars=request.get_vars))\nresponse.write("\'\\n    //--></script>\\n", escape=False)\nresponse.files.insert(0,URL(\'static\',\'js/jquery.js\'))\nresponse.files.insert(1,URL(\'static\',\'css/calendar.css\'))\nresponse.files.insert(2,URL(\'static\',\'js/calendar.js\'))\nresponse.files.insert(3,URL(\'static\',\'js/web2py.js\'))\nresponse.include_meta()\nresponse.include_files()\nresponse.write(\'\\n\', escape=False)\nresponse.write(\'\\r\\n    \\r\\n    <!-- Custom styles for this template -->\\r\\n    <style type="text/css">\\r\\n        .navbar-inverse .navbar-nav >li>a {\\r\\n            color: #E9D6C5;\\r\\n        }\\r\\n\\r\\n        .navbar-inverse {\\r\\n            background-color: #457;\\r\\n            border-color: #080808;\\r\\n        }\\r\\n\\r\\n        .navbar-inverse .navbar-brand {\\r\\n            color: #E9D6C5;\\r\\n        }\\r\\n\\r\\n        .btn-primary {\\r\\n            color: #E9D6C5;\\r\\n            background-color: #333;\\r\\n            border-color: #111;\\r\\n        }\\r\\n        img {\\r\\n            width: 400px;\\r\\n            height: 400px;\\r\\n            padding: 5px;\\r\\n        }\\r\\n\\r\\n        body {\\r\\n            background-color: #F5F5F5;\\r\\n            padding: 60px;\\r\\n        }\\r\\n    </style>\\r\\n</head>\\r\\n\\r\\n<body>\\r\\n    <div class="navbar navbar-inverse navbar-fixed-top" role="navigation">\\r\\n        <div class="container">\\r\\n            <div class="navbar-header">\\r\\n                <button type="button" class="navbar-toggle" data-toggle="collapse" data-target=".navbar-collapse">\\r\\n                    <span class="sr-only">Toggle navigation</span>\\r\\n                    <span class="icon-bar"></span>\\r\\n                    <span class="icon-bar"></span>\\r\\n                    <span class="icon-bar"></span>\\r\\n                </button>\\r\\n                <a class="navbar-brand" href="\', escape=False)\nresponse.write(URL(\'default\',\'index\'))\nresponse.write(\'">CareSeek</a>\\r\\n            </div>\\r\\n            \', escape=False)\nresponse.write(\'\\r\\n    <div class="navbar-collapse collapse">\\r\\n                <ul class="nav navbar-nav navbar-right">\\r\\n                    <li><a href=\\\'\', escape=False)\nresponse.write(URL("default", "search"))\nresponse.write(\'\\\' id="searchPage">Search</a></li>\\r\\n                    <li><a href=\\\'\', escape=False)\nresponse.write(URL("default", "mySchedule"))\nresponse.write(\'\\\' id="schedule">Schedule</a></li>\\r\\n                    <li><a href=\\\'\', escape=False)\nresponse.write(URL("default", "myProfile", args=auth.user.id))\nresponse.write(\'\\\' id="profile">My Profile</a></li>\\r\\n                    <li><a href=\\\'\', escape=False)\nresponse.write(URL("default", "settings"))\nresponse.write(\'\\\' id="usrSettings">Settings</a></li>\\r\\n                    <li><a href=\\\'\', escape=False)\nresponse.write(URL("default", "help"))\nresponse.write(\'\\\' id="Help">Help</a></li>\\r\\n                    <li><a  href=\\\'\', escape=False)\nresponse.write(URL("default", "user/logout"))\nresponse.write(\'\\\' id="logout">Logout</a></li>\\r\\n                    <li><a href=\\\'\', escape=False)\nresponse.write(URL("default", "test"))\nresponse.write(\'\\\' id="demo">Demo</a></li>\\r\\n\\r\\n                </ul>\\r\\n            </div>\\r\\n    \', escape=False)\nresponse.write(\'\\r\\n        </div>\\r\\n    </div>\\r\\n    \', escape=False)\nresponse.write(\'\\r\\n    <div class="container-fluid">\\r\\n            \', escape=False)\nresponse.write(\'\\r\\n\', escape=False)\ndef upload():\n    form = SQLFORM.factory(\n    Field(\'file_name\', requires=IS_NOT_EMPTY()),\n    Field(\'file\', \'upload\', requires = IS_UPLOAD_FILENAME(extension=\'pdf\'))\n    if form.accepts(request.vars, session):  #.process().accepted:\n        response.flash = u\'File uploaded\'\n        session.your_name = form.vars.file_name\n        session.filename = request.vars.file\n    elif form.errors:\n        response.flash = \'form has errors\'\n        return dict(form=form)\n    response.write(\'\\r\\n<div class="container-fluid">\\r\\n    <div class="col-xs-10 col-xs-offset-1 col-sm-10 col-sm-offset-1 col-md-10 col-md-offset-1">\\r\\n        <h1 class="page-header">Settings</h1>\\r\\n        <div class="col-xs-12 col-sm-12 col-md-12">\\r\\n            <div class="row">\\r\\n                <!-- Current Email -->\\r\\n                <label>Your Email:</label>\\r\\n                <div class="row">\\r\\n                    <div class="col-xs-11 col-sm-11 col-md-11" id="email" name="email"> \', escape=False)\n    response.write(user.email)\n    response.write(\' </div>\\r\\n                    <div class="col-xs-1 col-sm-1 col-md-1 ">\\r\\n                        <input type="submit" name="submit" value="Edit" class="btn btn-primary pull-right" id="editEmail">\\r\\n                    </div>\\r\\n                </div>\\r\\n                <!-- Change email form -->\\r\\n                    <div class="panel-body" id="editEmailBox" style="display: none">\\r\\n                        <form role=\\\'form\\\'>\\r\\n                            <div class="form-group">\\r\\n                                <label>Enter new email</label>\\r\\n                                <div class="input-group">\\r\\n                                    <input type="email" class="form-control" id="emailInput" name="newEmail" placeholder="example@email.com">\\r\\n                                    <span class="input-group-btn">\\r\\n                                        <input class="btn btn-primary pull-right" type="submit" name="submit" value="Save" id="saveEmail" onclick="ajax(\\\'\', escape=False)\n    response.write(URL(\'default\', \'updateEmail\'))\n    response.write(\'\\\',[\\\'newEmail\\\'],\\\'email\\\');"></input>\\r\\n                                    </span>\\r\\n                                </div>\\r\\n                            </div>\\r\\n                        </form>\\r\\n                    </div>\\r\\n             </div> <!-- End of email setting -->\\r\\n\\r\\n            <div class="row">\\r\\n                <!-- Current password -->\\r\\n                <label>Your Password:</label>\\r\\n                <div class="row">\\r\\n                    <div class="col-xs-11 col-sm-11 col-md-11"> \\xe2\\x80\\xa2\\xe2\\x80\\xa2\\xe2\\x80\\xa2\\xe2\\x80\\xa2\\xe2\\x80\\xa2\\xe2\\x80\\xa2\\xe2\\x80\\xa2\\xe2\\x80\\xa2\\xe2\\x80\\xa2\\xe2\\x80\\xa2\\xe2\\x80\\xa2\\xe2\\x80\\xa2\\xe2\\x80\\xa2 </div>\\r\\n                    <div class="col-xs-1 col-sm-1 col-md-1 ">\\r\\n                        <input type="submit" name="submit" value="Edit" class="btn btn-primary pull-right" id="editPass">\\r\\n                    </div>\\r\\n                </div>\\r\\n                <!-- Change Pass form -->\\r\\n                <div class="panel-body" id="editPassBox" style="display: none">\\r\\n                    <form role=\\\'form\\\'>\\r\\n                       <div class="form-group">\\r\\n                            <label for="">Old password</label>\\r\\n                            <div class="input-group">\\r\\n                                <input type="password" class="form-control" id="oldPass" name="oldPass" placeholder="Enter old password">\\r\\n                                <span class="input-group-addon"></span>\\r\\n                            </div>\\r\\n                        </div>\\r\\n                        <div class="form-group">\\r\\n                            <label for="">New password</label>\\r\\n                            <div class="input-group">\\r\\n                                <input type="password" class="form-control" id="newPass" name="newPass" placeholder="Enter new password...">\\r\\n                                <span class="input-group-addon"></span>\\r\\n                            </div>\\r\\n                        </div>\\r\\n                        <div class="form-group">\\r\\n                            <label for="">Confirm new password</label>\\r\\n                            <div class="input-group">\\r\\n                                <input type="password" class="form-control" id="confNewPass" name="confNewPass" placeholder="Enter new password again...">\\r\\n                                <span class="input-group-addon"></span>\\r\\n                            </div>\\r\\n                        </div>\\r\\n                        <input class="btn btn-primary pull-right" type="submit" name="submit" value="Save" id="saveEmail" onclick="ajax(\\\'\', escape=False)\n    response.write(URL(\'default\', \'updatePass\'))\n    response.write(\'\\\',[\\\'oldPass\\\', \\\'newPass\\\', \\\'confNewPass\\\'],\\\'oldPass\\\');"></input>\\r\\n                    </form>\\r\\n                </div>\\r\\n             </div> <!-- End of password setting -->\\r\\n\\r\\n            <div class="row">\\r\\n                <!-- Current Interests -->\\r\\n                <label>Your Interests:</label>\\r\\n                <div class="row">\\r\\n                    <div class="col-xs-11 col-sm-11 col-md-11">\\r\\n                        \', escape=False)\n    value = \'\'\n    response.write(\'\\r\\n                        \', escape=False)\n    for item in role.Interests:\n        value += item\n        response.write(\'\\r\\n                        \', escape=False)\n        pass\n    response.write(\'\\r\\n                        <input class="col-xs-11 col-sm-11 col-md-11" type="text" id="interests" name="interests" value=\\\'\', escape=False)\n    response.write(value)\n    response.write(\'\\\' data-role="tagsinput"></input>\\r\\n                    </div>\\r\\n                    <div class="col-xs-1 col-sm-1 col-md-1 ">\\r\\n                        <input type="submit" name="submit" value="Edit" class="btn btn-primary pull-right" id="editInterests">\\r\\n                    </div>\\r\\n                </div>\\r\\n                <!-- Change Interests form -->\\r\\n                <div class="panel-body" id="editInterestBox" style="display:none">\\r\\n                    <form role=\\\'form\\\'>\\r\\n                       <div class="form-group">\\r\\n                            <label for="">Update Interests:</label>\\r\\n                            <div class="input-group">\\r\\n                                <input type="text" id="newInterests" name="newInterests" value=\\\'\', escape=False)\n    response.write(value)\n    response.write(\'\\\' data-role="tagsinput"/>\\r\\n                            </div>\\r\\n                            <input class="btn btn-primary pull-right" type="submit" name="newInterests" value="Save" id="saveInterests" onclick="ajax(\\\'\', escape=False)\n    response.write(URL(\'default\', \'updateInterest\'))\n    response.write(\'\\\',[\\\'newInterests\\\'],\\\'interests\\\');"></input>\\r\\n                        </div>\\r\\n                        \\r\\n                    </form>\\r\\n                </div>\\r\\n             </div> <!-- End of interests setting --> \\r\\n            \\r\\n            <div class="row">\\r\\n                <!-- Current Contact -->\\r\\n                <label>Your contact number:</label>\\r\\n                <div class="row">\\r\\n                    <div class="col-xs-11 col-sm-11 col-md-11"> \', escape=False)\n    response.write(user.Phone)\n    response.write(\' </div>\\r\\n                    <div class="col-xs-1 col-sm-1 col-md-1 ">\\r\\n                        <input type="submit" name="submit" value="Edit" class="btn btn-primary pull-right" id="editPhone" name="editPhone">\\r\\n                    </div>\\r\\n                </div>\\r\\n                <!-- Change Contact form -->\\r\\n                <div class="panel-body" id="editPhoneBox" style="display:none">\\r\\n                    <form role=\\\'form\\\'>\\r\\n                       <div class="form-group">\\r\\n                            <label for="">Update contact number</label>\\r\\n                            <div class="input-group">\\r\\n                                <input type="text" class="form-control" id="newPhoneInput" name="newPhoneInput" placeholder="Enter new contact number">\\r\\n                                <span class="input-group-btn">\\r\\n                                    <input class="btn btn-primary pull-right" type="submit" value="Save" id="savePhone" onclick="ajax(\\\'\', escape=False)\n    response.write(URL(\'default\', \'updatePhone\'))\n    response.write(\'\\\',[\\\'newPhoneInput\\\'],\\\'editPhone\\\');"></input>\\r\\n                                </span>\\r\\n                            </div>\\r\\n                        </div>\\r\\n                    </form>\\r\\n                </div>\\r\\n             </div> <!-- End of Contact setting --> \\r\\n            \\r\\n            <div class="row">\\r\\n                <!-- Current Desc -->\\r\\n                <label>About me:</label>\\r\\n                <div class="row">\\r\\n                    <pre class="col-xs-11 col-sm-11 col-md-11" name="editAboutMe"> \', escape=False)\n    response.write(user.AboutMe)\n    response.write(\' </pre>\\r\\n                    <div class="col-xs-1 col-sm-1 col-md-1 ">\\r\\n                        <input type="submit" name="submit" value="Edit" class="btn btn-primary pull-right" id="editAboutMe">\\r\\n                    </div>\\r\\n                </div>\\r\\n                <!-- Change Contact form -->\\r\\n                <div class="panel-body" id="editAboutMeBox" style="display:none">\\r\\n                    <form role=\\\'form\\\'>\\r\\n                       <div class="form-group">\\r\\n                            <label for="">Update About me</label>\\r\\n                            <div class="input-group">\\r\\n                                <textarea type="text" class="form-control" id="newAboutMe" name="newAboutMe" value="heyho">\', escape=False)\n    response.write(user.AboutMe)\n    response.write(\'</textarea>\\r\\n                                <span class="input-group-addon"></span>\\r\\n                            </div>\\r\\n                        </div>\\r\\n                        <input class="btn btn-primary pull-right" type="submit" value="Save" id="saveAboutMe" onclick="ajax(\\\'\', escape=False)\n    response.write(URL(\'default\', \'updateDesc\'))\n    response.write(\'\\\',[\\\'newAboutMe\\\'],\\\'editAboutMe\\\');"></input>\\r\\n                    </form>\\r\\n                </div>\\r\\n             </div> <!-- End of Contact setting -->\\r\\n\\r\\n            \', escape=False)\n    if user.User_Type == "Carer":\n        response.write(\'\\r\\n                <div class="row">\\r\\n                    <!-- Current CV -->\\r\\n                    <label>Update your CV:</label>\\r\\n                    <div class="row">\\r\\n                        <div class="col-xs-11 col-sm-11 col-md-11"> <a href="\', escape=False)\n        response.write(cvUrl)\n        response.write(\'">Cick to view</a> </div>\\r\\n                        <div class="col-xs-1 col-sm-1 col-md-1">\\r\\n                            <input type="submit" name="submit" value="Edit" class="btn btn-primary pull-right" id="editCV" name="editCV">\\r\\n                        </div>\\r\\n                    </div>\\r\\n\\r\\n                    <!-- Change CV form -->\\r\\n                    <div class="panel-body" id="editCVBox" style="display:none">\\r\\n                        <form role=\\\'form\\\'>\\r\\n                           <div class="form-group">\\r\\n                                <label for="">Upload new CV</label>\\r\\n                                <div class="input-group">\\r\\n\\t\\t\\t\\t\\t\\t\\t\\t\\t\', escape=False)\n        response.write(upload())\n        response.write(\'\\r\\n                                    <input type="file" id="newCV" name="newCV" title="Search for a file to add">\\r\\n                                </div>\\r\\n                            </div>\\r\\n                            <input class="btn btn-primary pull-right" type="submit" value="Save" id="saveCV" onclick="ajax(\\\'\', escape=False)\n        response.write(URL(\'default\', \'updateCV\'))\n        response.write(\'\\\',[\\\'newCV\\\'],\\\'editCV\\\');"></input>\\r\\n                        </form>\\r\\n                    </div>\\r\\n                 </div> <!-- End of CV setting --> \\r\\n            \', escape=False)\n        pass\n    response.write(\'\\r\\n         </div>\\r\\n    </div>  \\r\\n</div>\\r\\n<script src="\', escape=False)\n    response.write(URL(\'static/js\',\'settings.js\'))\n    response.write(\'"></script>\\r\\n<script src="\', escape=False)\n    response.write(URL(\'static/js\',\'bootstrap-tagsinput.min.js\'))\n    response.write(\'"></script>\\r\\n\', escape=False)\n    response.write(\'\\r\\n    </div>\\r\\n\', escape=False)\n    response.write(\'\\r\\n    <!-- The javascript =============================================\\r\\n    (Placed at the end of the document so the pages load faster) -->\\r\\n    <script src="\', escape=False)\n    response.write(URL(\'static/js\',\'jquery-1.11.0.min.js\'))\n    response.write(\'"></script>\\r\\n    <script src="\', escape=False)\n    response.write(URL(\'static/js\',\'bootstrap.min.js\'))\n    response.write(\'"></script>\\r\\n    <script src="\', escape=False)\n    response.write(URL(\'static/js\',\'formTest.js\'))\n    response.write(\'"></script>\\r\\n    <script src="\', escape=False)\n    response.write(URL(\'static/js\',\'sanitise.js\'))\n    response.write(\'"></script>\\r\\n    <script src="\', escape=False)\n    response.write(URL(\'static/js\',\'search.js\'))\n    response.write(\'"></script>\\r\\n    <script src="\', escape=False)\n    response.write(URL(\'static/js\',\'userReg.js\'))\n    response.write(\'"></script>\\r\\n</body>\\r\\n</html>\\r\\n\', escape=False)'
p7
sS'snapshot'
p8
(dp9
S'exception'
p10
(dp11
S'__module__'
p12
S"'gluon.rocket'"
p13
sS'__getslice__'
p14
S"<method-wrapper '__getslice__' of SocketTimeout object>"
p15
sS'__str__'
p16
S"<method-wrapper '__str__' of SocketTimeout object>"
p17
sS'__reduce__'
p18
S'<built-in method __reduce__ of SocketTimeout object>'
p19
sS'__dict__'
p20
S'{}'
p21
sS'__sizeof__'
p22
S'<built-in method __sizeof__ of SocketTimeout object>'
p23
sS'__weakref__'
p24
S'None'
p25
sS'__init__'
p26
S"<method-wrapper '__init__' of SocketTimeout object>"
p27
sS'__setattr__'
p28
S"<method-wrapper '__setattr__' of SocketTimeout object>"
p29
sS'__reduce_ex__'
p30
S'<built-in method __reduce_ex__ of SocketTimeout object>'
p31
sS'__new__'
p32
S'<built-in method __new__ of type object>'
p33
sS'__format__'
p34
S'<built-in method __format__ of SocketTimeout object>'
p35
sS'__class__'
p36
S"<class 'gluon.rocket.SocketTimeout'>"
p37
sS'__doc__'
p38
S"'Exception for when a socket times out between requests.'"
p39
sS'__getitem__'
p40
S"<method-wrapper '__getitem__' of SocketTimeout object>"
p41
sS'__setstate__'
p42
S'<built-in method __setstate__ of SocketTimeout object>'
p43
sS'__getattribute__'
p44
S"<method-wrapper '__getattribute__' of SocketTimeout object>"
p45
sS'args'
p46
S"('Socket timed out before request.',)"
p47
sS'__subclasshook__'
p48
S'<built-in method __subclasshook__ of type object>'
p49
sS'__unicode__'
p50
S'<built-in method __unicode__ of SocketTimeout object>'
p51
sS'__delattr__'
p52
S"<method-wrapper '__delattr__' of SocketTimeout object>"
p53
sS'__repr__'
p54
S"<method-wrapper '__repr__' of SocketTimeout object>"
p55
sS'__hash__'
p56
S"<method-wrapper '__hash__' of SocketTimeout object>"
p57
ssS'evalue'
p58
S'Socket timed out before request.'
p59
sS'frames'
p60
(lp61
(dp62
S'file'
p63
S'C:\\home\\mdipierro\\make_web2py\\web2py\\gluon\\rocket.py'
p64
sS'dump'
p65
(dp66
sS'lnum'
p67
I1337
sS'lines'
p68
(dp69
sS'call'
p70
S'(self=<WSGIWorker(Thread-10, started daemon 3792)>)'
p71
sS'func'
p72
S'run'
p73
sa(dp74
g63
S'C:\\home\\mdipierro\\make_web2py\\web2py\\gluon\\rocket.py'
p75
sg65
(dp76
sg67
I1830
sg68
(dp77
sg70
S'(self=<WSGIWorker(Thread-10, started daemon 3792)>, conn=<gluon.rocket.Connection object>)'
p78
sg72
S'run_app'
p79
sa(dp80
g63
S'C:\\home\\mdipierro\\make_web2py\\web2py\\gluon\\rocket.py'
p81
sg65
(dp82
sg67
I1650
sg68
(dp83
sg70
S'(self=<WSGIWorker(Thread-10, started daemon 3792)>, sock_file=<socket._fileobject object>, conn=<gluon.rocket.Connection object>)'
p84
sg72
S'build_environ'
p85
sa(dp86
g63
S'C:\\home\\mdipierro\\make_web2py\\web2py\\gluon\\rocket.py'
p87
sg65
(dp88
sg67
I1401
sg68
(dp89
sg70
S'(self=<WSGIWorker(Thread-10, started daemon 3792)>, sock_file=<socket._fileobject object>)'
p90
sg72
S'read_request_line'
p91
sasS'pyver'
p92
S'Python 2.7.6: C:\\Users\\Daniel\\Desktop\\web2py\\web2py.exe (prefix: C:\\Python27)'
p93
sS'etype'
p94
S"<class 'gluon.rocket.SocketTimeout'>"
p95
sS'date'
p96
S'Tue May 27 15:13:21 2014'
p97
sS'locals'
p98
(dp99
S'sock_file'
p100
S'<socket._fileobject object>'
p101
sS'self'
p102
S'<WSGIWorker(Thread-10, started daemon 3792)>'
p103
sssS'traceback'
p104
S'Traceback (most recent call last):\n  File "/home/mdipierro/make_web2py/web2py/gluon/rocket.py", line 1337, in run\n  File "/home/mdipierro/make_web2py/web2py/gluon/rocket.py", line 1830, in run_app\n  File "/home/mdipierro/make_web2py/web2py/gluon/rocket.py", line 1650, in build_environ\n  File "/home/mdipierro/make_web2py/web2py/gluon/rocket.py", line 1401, in read_request_line\nSocketTimeout: Socket timed out before request.\n'
p105
s.