(dp1
S'output'
p2
S'<type \'exceptions.SyntaxError\'> invalid table/column name "From" is a "ALL" reserved SQL/NOSQL keyword'
p3
sS'layer'
p4
S'C:\\Users\\4524\\Documents\\web2py_win\\web2py\\applications\\CareSeek2\\models\\db.py'
p5
sS'code'
p6
S'# -*- coding: utf-8 -*-\n\n#########################################################################\n## This scaffolding model makes your app work on Google App Engine too\n## File is released under public domain and you can use without limitations\n#########################################################################\n\n## if SSL/HTTPS is properly configured and you want all HTTP requests to\n## be redirected to HTTPS, uncomment the line below:\n# request.requires_https()\n\nif not request.env.web2py_runtime_gae:\n    ## if NOT running on Google App Engine use SQLite or other DB\n    db = DAL(\'sqlite://storage.sqlite\',pool_size=1,check_reserved=[\'all\'])\nelse:\n    ## connect to Google BigTable (optional \'google:datastore://namespace\')\n    db = DAL(\'google:datastore\')\n    ## store sessions and tickets there\n    session.connect(request, response, db=db)\n    ## or store session in Memcache, Redis, etc.\n    ## from gluon.contrib.memdb import MEMDB\n    ## from google.appengine.api.memcache import Client\n    ## session.connect(request, response, db = MEMDB(Client()))\n\n## by default give a view/generic.extension to all actions from localhost\n## none otherwise. a pattern can be \'controller/function.extension\'\nresponse.generic_patterns = [\'*\'] if request.is_local else []\n## (optional) optimize handling of static files\n# response.optimize_css = \'concat,minify,inline\'\n# response.optimize_js = \'concat,minify,inline\'\n## (optional) static assets folder versioning\n# response.static_version = \'0.0.0\'\n#########################################################################\n## Here is sample code if you need for\n## - email capabilities\n## - authentication (registration, login, logout, ... )\n## - authorization (role based authorization)\n## - services (xml, csv, json, xmlrpc, jsonrpc, amf, rss)\n## - old style crud actions\n## (more options discussed in gluon/tools.py)\n#########################################################################\nTYPE=[ T(\'Carer\'), T(\'Care Seeker\') ]\ngender=[ T(\'Male\'), T(\'Female\') ]\n\nfrom gluon.tools import Auth, Crud, Service, PluginManager, prettydate\nauth = Auth(db)\ncrud, service, plugins = Crud(db), Service(), PluginManager()\n\nauth.settings.extra_fields[\'auth_user\']= [\n    Field(\'Phone\', \'integer\', requires=IS_NOT_EMPTY()),\n    Field(\'Age\', \'integer\'),\n    Field(\'Gender\', \'string\', requires=IS_IN_SET(gender, zero=T(\'--Please select--\'))),\n    Field(\'User_Type\', \'string\', requires=IS_IN_SET(TYPE, labels = [\'Looking for a Care Seeker\', \'Looking for a Carer\'], zero = T(\'-- Why are you using this site? --\'))),\n    Field(\'MyPict\', \'upload\'),\n    Field(\'AboutMe\', \'text\')]\n## create all tables needed by auth if not custom tables\nauth.define_tables(username=True, signature=False)\n\n## configure email\nmail = auth.settings.mailer\nmail.settings.server = \'logging\' or \'smtp.gmail.com:587\'\nmail.settings.sender = \'nhimbong94@gmail.com\'\nmail.settings.login = \'username:password\'\n\n## configure auth policy\nauth.settings.registration_requires_verification = False\nauth.settings.registration_requires_approval = False\nauth.settings.reset_password_requires_verification = True\n## if you need to use OpenID, Facebook, MySpace, Twitter, Linkedin, etc.\n## register with janrain.com, write your domain:api_key in private/janrain.key\nfrom gluon.contrib.login_methods.rpx_account import use_janrain\nuse_janrain(auth, filename=\'private/janrain.key\')\n\n#########################################################################\n## Define your tables below (or better in another model file) for example\n##\n## >>> db.define_table(\'mytable\',Field(\'myfield\',\'string\'))\n##\n## Fields can be \'string\',\'text\',\'password\',\'integer\',\'double\',\'boolean\'\n##       \'date\',\'time\',\'datetime\',\'blob\',\'upload\', \'reference TABLENAME\'\n## There is an implicit \'id integer autoincrement\' field\n## Consult manual for more options, validators, etc.\n##\n## More API examples for controllers:\n##\n## >>> db.mytable.insert(myfield=\'value\')\n## >>> rows=db(db.mytable.myfield==\'value\').select(db.mytable.ALL)\n## >>> for row in rows: print row.id, row.myfield\n#########################################################################\ndb.define_table(\'WorkWith\',\n    Field(\'Carer\', \'integer\'),\n    Field(\'CareSeeker\', \'integer\')\n    )\n## use this table for both requirements and experience => easier to search\ndb.define_table(\'ExperienceRequirementType\',\n    Field(\'ExperienceType\', \'string\')# we can use this as dropdown box options\n    )\n\ndb.define_table(\'Experience\',\n    Field(\'ExperienceType\', \'reference ExperienceRequirementType\'),\n    Field(\'UserID\', \'reference auth_user\'),\n    Field(\'Qualification\', \'string\'),\n    Field(\'Period\', \'integer\'), # in months\n    Field(\'Details\',\'text\')\n    )\n\ndb.define_table(\'Requirement\',\n    Field(\'RequirementType\', \'reference ExperienceRequirementType\'),\n    Field(\'MyUserID\', \'reference auth_user\'),\n    Field(\'Gender\', \'string\'),\n    Field(\'Qualification\', \'string\'),\n    Field(\'Period\', \'integer\'),# in months\n    Field(\'Availability\', \'integer\')# in hours\n    )\ndb.define_table(\'MyMessage\',\n    Field(\'FromUser\', \'reference auth_user\'),\n    Field(\'ToUser\', \'reference auth_user\'),\n    Field(\'MessageDate\', \'datetime\', default=request.now),\n    Field(\'Detail\', \'text\')\n    )\n# db.define_table(\'Address\',\n#     Field(\'MyUserID\', \'reference auth_user\'),\n#     Field(\'StreetNumber\', \'integer\'),\n#     Field(\'Street\', \'string\'),\n#     Field(\'Postcode\', \'integer\'),\n#     Field(\'Area\', \'string\'),\n#     Field(\'City\', \'string\')\n#     )\n\ndb.define_table(\'Schedule\',\n    Field(\'MyUserID\', \'reference auth_user\'),\n    Field(\'Days\', \'string\'),# we can hard code the days\n    Field(\'HourFrom\', \'integer\'), # we can hard code these too\n    Field(\'HourTo\', \'integer\')\n    )\ndb.define_table(\'Bookings\',\n    Field(\'ScheduleID\', \'reference Schedule\'),\n    Field(\'CareSeeker\', \'reference auth_user\'),\n    Field(\'HourFrom\', \'integer\'),# we don\'t need day as it is defined in Schedule already\n    Field(\'HourTo\', \'integer\')\n    )\ndb.define_table(\'Criteria\',\n   Field(\'Criteria\', \'text\')\n   )\ndb.define_table(\'Rating\',\n   Field(\'From\', \'reference auth_user\'),\n   Field(\'To\', \'reference auth_user\'),\n   Field(\'Comment\', \'text\'),\n   Field(\'CriteriaID\', \'reference Criteria\')\n   )\n\n\n# db.define_table(\'Settings\',\n#     Field(\'MyUserID\', \'reference auth_user\'),\n#     Field(\'StreetNumber\', \'integer\'),\n#     Field(\'Street\', \'string\'),\n#     Field(\'Postcode\', \'integer\'),\n#     Field(\'Area\', \'string\'),\n#     Field(\'City\', \'string\')\n#     )\n\ndb.define_table(\'CareSeeker\',\n    Field("UserId", \'reference auth_user\'),\n\tField("Requirements", "reference Requirement"),\n\tField("Interests", "list:string"),\n)\n\ndb.define_table(\'Carer\',\n    Field("UserId", \'reference auth_user\'),\n\tField("Experience", "reference Experience"),\n\tField("Interests", "list:string"),\n    Field(\'CV\', \'upload\')\n)\n\n#db.WorkWith.Carer.requires = IS_IN_DB(db, db.auth_user.id)\n#db.WorkWith.CareSeeker.requires = IS_IN_DB(db, db.auth_user.id)\n\n#enable auditing\nauth.enable_record_versioning(db)\n'
p7
sS'snapshot'
p8
(dp9
S'exception'
p10
(dp11
S'__getslice__'
p12
S"<method-wrapper '__getslice__' of exceptions.SyntaxError object>"
p13
sS'text'
p14
S'None'
p15
sS'__str__'
p16
S"<method-wrapper '__str__' of exceptions.SyntaxError object>"
p17
sS'__reduce__'
p18
S'<built-in method __reduce__ of exceptions.SyntaxError object>'
p19
sS'__dict__'
p20
S'{}'
p21
sS'__sizeof__'
p22
S'<built-in method __sizeof__ of exceptions.SyntaxError object>'
p23
sS'__init__'
p24
S"<method-wrapper '__init__' of exceptions.SyntaxError object>"
p25
sS'__setattr__'
p26
S"<method-wrapper '__setattr__' of exceptions.SyntaxError object>"
p27
sS'__reduce_ex__'
p28
S'<built-in method __reduce_ex__ of exceptions.SyntaxError object>'
p29
sS'__new__'
p30
S'<built-in method __new__ of type object>'
p31
sS'__format__'
p32
S'<built-in method __format__ of exceptions.SyntaxError object>'
p33
sS'__class__'
p34
S"<type 'exceptions.SyntaxError'>"
p35
sS'filename'
p36
S'None'
p37
sS'lineno'
p38
S'None'
p39
sS'msg'
p40
S'\'invalid table/column name "From" is a "ALL" reserved SQL/NOSQL keyword\''
p41
sS'__doc__'
p42
S"'Invalid syntax.'"
p43
sS'__getitem__'
p44
S"<method-wrapper '__getitem__' of exceptions.SyntaxError object>"
p45
sS'__setstate__'
p46
S'<built-in method __setstate__ of exceptions.SyntaxError object>'
p47
sS'__getattribute__'
p48
S"<method-wrapper '__getattribute__' of exceptions.SyntaxError object>"
p49
sS'print_file_and_line'
p50
S'None'
p51
sS'args'
p52
S'(\'invalid table/column name "From" is a "ALL" reserved SQL/NOSQL keyword\',)'
p53
sS'__subclasshook__'
p54
S'<built-in method __subclasshook__ of type object>'
p55
sS'offset'
p56
S'None'
p57
sS'__unicode__'
p58
S'<built-in method __unicode__ of exceptions.SyntaxError object>'
p59
sS'__delattr__'
p60
S"<method-wrapper '__delattr__' of exceptions.SyntaxError object>"
p61
sS'__repr__'
p62
S"<method-wrapper '__repr__' of exceptions.SyntaxError object>"
p63
sS'__hash__'
p64
S"<method-wrapper '__hash__' of exceptions.SyntaxError object>"
p65
ssS'evalue'
p66
S'invalid table/column name "From" is a "ALL" reserved SQL/NOSQL keyword'
p67
sS'request'
p68
cgluon.html
XML_unpickle
p69
(S's\xe3[\x00\x00<div><table><tr><td style="font-weight:bold;vertical-align:top;">ajax</td><td style="vertical-align:top;">:</td><td><div>False</div></td></tr><tr><td style="font-weight:bold;vertical-align:top;">application</td><td style="vertical-align:top;">:</td><td><div>CareSeek2</div></td></tr><tr><td style="font-weight:bold;vertical-align:top;">args</td><td style="vertical-align:top;">:</td><td><div><table></table></div></td></tr><tr><td style="font-weight:bold;vertical-align:top;">cid</td><td style="vertical-align:top;">:</td><td><div>None</div></td></tr><tr><td style="font-weight:bold;vertical-align:top;">client</td><td style="vertical-align:top;">:</td><td><div>127.0.0.1</div></td></tr><tr><td style="font-weight:bold;vertical-align:top;">controller</td><td style="vertical-align:top;">:</td><td><div>appadmin</div></td></tr><tr><td style="font-weight:bold;vertical-align:top;">cookies</td><td style="vertical-align:top;">:</td><td><div><table><tr><td style="font-weight:bold;vertical-align:top;">session_id_admin</td><td style="vertical-align:top;">:</td><td><div>127.0.0.1-5737bf43-d36d-46ed-9c39-57fe1bd48d3e<table><tr><td style="font-weight:bold;vertical-align:top;">comment</td><td style="vertical-align:top;">:</td><td><div></div></td></tr><tr><td style="font-weight:bold;vertical-align:top;">domain</td><td style="vertical-align:top;">:</td><td><div></div></td></tr><tr><td style="font-weight:bold;vertical-align:top;">expires</td><td style="vertical-align:top;">:</td><td><div></div></td></tr><tr><td style="font-weight:bold;vertical-align:top;">httponly</td><td style="vertical-align:top;">:</td><td><div></div></td></tr><tr><td style="font-weight:bold;vertical-align:top;">max-age</td><td style="vertical-align:top;">:</td><td><div></div></td></tr><tr><td style="font-weight:bold;vertical-align:top;">path</td><td style="vertical-align:top;">:</td><td><div></div></td></tr><tr><td style="font-weight:bold;vertical-align:top;">secure</td><td style="vertical-align:top;">:</td><td><div></div></td></tr><tr><td style="font-weight:bold;vertical-align:top;">version</td><td style="vertical-align:top;">:</td><td><div></div></td></tr></table></div></td></tr><tr><td style="font-weight:bold;vertical-align:top;">session_id_careseek2</td><td style="vertical-align:top;">:</td><td><div>127.0.0.1-4fd6f20a-450b-445a-86ff-25a8e28b9c53<table><tr><td style="font-weight:bold;vertical-align:top;">comment</td><td style="vertical-align:top;">:</td><td><div></div></td></tr><tr><td style="font-weight:bold;vertical-align:top;">domain</td><td style="vertical-align:top;">:</td><td><div></div></td></tr><tr><td style="font-weight:bold;vertical-align:top;">expires</td><td style="vertical-align:top;">:</td><td><div></div></td></tr><tr><td style="font-weight:bold;vertical-align:top;">httponly</td><td style="vertical-align:top;">:</td><td><div></div></td></tr><tr><td style="font-weight:bold;vertical-align:top;">max-age</td><td style="vertical-align:top;">:</td><td><div></div></td></tr><tr><td style="font-weight:bold;vertical-align:top;">path</td><td style="vertical-align:top;">:</td><td><div></div></td></tr><tr><td style="font-weight:bold;vertical-align:top;">secure</td><td style="vertical-align:top;">:</td><td><div></div></td></tr><tr><td style="font-weight:bold;vertical-align:top;">version</td><td style="vertical-align:top;">:</td><td><div></div></td></tr></table></div></td></tr><tr><td style="font-weight:bold;vertical-align:top;">session_id_welcome</td><td style="vertical-align:top;">:</td><td><div>127.0.0.1-b5873f0b-4d37-4861-b393-2a8fb5356c14<table><tr><td style="font-weight:bold;vertical-align:top;">comment</td><td style="vertical-align:top;">:</td><td><div></div></td></tr><tr><td style="font-weight:bold;vertical-align:top;">domain</td><td style="vertical-align:top;">:</td><td><div></div></td></tr><tr><td style="font-weight:bold;vertical-align:top;">expires</td><td style="vertical-align:top;">:</td><td><div></div></td></tr><tr><td style="font-weight:bold;vertical-align:top;">httponly</td><td style="vertical-align:top;">:</td><td><div></div></td></tr><tr><td style="font-weight:bold;vertical-align:top;">max-age</td><td style="vertical-align:top;">:</td><td><div></div></td></tr><tr><td style="font-weight:bold;vertical-align:top;">path</td><td style="vertical-align:top;">:</td><td><div></div></td></tr><tr><td style="font-weight:bold;vertical-align:top;">secure</td><td style="vertical-align:top;">:</td><td><div></div></td></tr><tr><td style="font-weight:bold;vertical-align:top;">version</td><td style="vertical-align:top;">:</td><td><div></div></td></tr></table></div></td></tr></table></div></td></tr><tr><td style="font-weight:bold;vertical-align:top;">env</td><td style="vertical-align:top;">:</td><td><div><table><tr><td style="font-weight:bold;vertical-align:top;">HTTP_ACCEPT</td><td style="vertical-align:top;">:</td><td><div>text/html,application/xhtml+xml,application/xml;q=0.9,image/webp,*/*;q=0.8</div></td></tr><tr><td style="font-weight:bold;vertical-align:top;">HTTP_ACCEPT_ENCODING</td><td style="vertical-align:top;">:</td><td><div>gzip,deflate,sdch</div></td></tr><tr><td style="font-weight:bold;vertical-align:top;">HTTP_ACCEPT_LANGUAGE</td><td style="vertical-align:top;">:</td><td><div>en-GB,en;q=0.8,en-US;q=0.6,vi;q=0.4</div></td></tr><tr><td style="font-weight:bold;vertical-align:top;">HTTP_CONNECTION</td><td style="vertical-align:top;">:</td><td><div>keep-alive</div></td></tr><tr><td style="font-weight:bold;vertical-align:top;">HTTP_COOKIE</td><td style="vertical-align:top;">:</td><td><div>session_id_welcome=127.0.0.1-b5873f0b-4d37-4861-b393-2a8fb5356c14; session_id_careseek2=127.0.0.1-4fd6f20a-450b-445a-86ff-25a8e28b9c53; session_id_admin=127.0.0.1-5737bf43-d36d-46ed-9c39-57fe1bd48d3e</div></td></tr><tr><td style="font-weight:bold;vertical-align:top;">HTTP_HOST</td><td style="vertical-align:top;">:</td><td><div>127.0.0.1:8000</div></td></tr><tr><td style="font-weight:bold;vertical-align:top;">HTTP_REFERER</td><td style="vertical-align:top;">:</td><td><div>http://127.0.0.1:8000/admin/default/design/CareSeek2</div></td></tr><tr><td style="font-weight:bold;vertical-align:top;">HTTP_USER_AGENT</td><td style="vertical-align:top;">:</td><td><div>Mozilla/5.0 (Windows NT 6.1; WOW64) AppleWebKit/537.36 (KHTML, like Gecko) Chrome/35.0.1916.114 Safari/537.36</div></td></tr><tr><td style="font-weight:bold;vertical-align:top;">PATH_INFO</td><td style="vertical-align:top;">:</td><td><div>/CareSeek2/appadmin/index</div></td></tr><tr><td style="font-weight:bold;vertical-align:top;">QUERY_STRING</td><td style="vertical-align:top;">:</td><td><div></div></td></tr><tr><td style="font-weight:bold;vertical-align:top;">REMOTE_ADDR</td><td style="vertical-align:top;">:</td><td><div>127.0.0.1</div></td></tr><tr><td style="font-weight:bold;vertical-align:top;">REMOTE_PORT</td><td style="vertical-align:top;">:</td><td><div>52975</div></td></tr><tr><td style="font-weight:bold;vertical-align:top;">REQUEST_METHOD</td><td style="vertical-align:top;">:</td><td><div>GET</div></td></tr><tr><td style="font-weight:bold;vertical-align:top;">SCRIPT_NAME</td><td style="vertical-align:top;">:</td><td><div></div></td></tr><tr><td style="font-weight:bold;vertical-align:top;">SERVER_NAME</td><td style="vertical-align:top;">:</td><td><div>aun-021</div></td></tr><tr><td style="font-weight:bold;vertical-align:top;">SERVER_PORT</td><td style="vertical-align:top;">:</td><td><div>8000</div></td></tr><tr><td style="font-weight:bold;vertical-align:top;">SERVER_PROTOCOL</td><td style="vertical-align:top;">:</td><td><div>HTTP/1.1</div></td></tr><tr><td style="font-weight:bold;vertical-align:top;">SERVER_SOFTWARE</td><td style="vertical-align:top;">:</td><td><div>Rocket 1.2.6</div></td></tr><tr><td style="font-weight:bold;vertical-align:top;">app_folders</td><td style="vertical-align:top;">:</td><td><div>set([&#x27;C:\\\\Users\\\\4524\\\\Documents\\\\web2py_win\\\\web2py\\\\applications\\\\admin\\\\&#x27;, &#x27;C:\\\\Users\\\\4524\\\\Documents\\\\web2py_win\\\\web2py\\\\applications\\\\welcome\\\\&#x27;, &#x27;C:\\\\Users\\\\4524\\\\Documents\\\\web2py_win\\\\web2py\\\\applications\\\\CareSeek2\\\\&#x27;])</div></td></tr><tr><td style="font-weight:bold;vertical-align:top;">applications_parent</td><td style="vertical-align:top;">:</td><td><div>C:\\Users\\4524\\Documents\\web2py_win\\web2py</div></td></tr><tr><td style="font-weight:bold;vertical-align:top;">cmd_args</td><td style="vertical-align:top;">:</td><td><div><table></table></div></td></tr><tr><td style="font-weight:bold;vertical-align:top;">cmd_options</td><td style="vertical-align:top;">:</td><td><div>&lt;Values at 0x2fbedf0: {&#x27;verbose&#x27;: False, &#x27;ip&#x27;: &#x27;127.0.0.1&#x27;, &#x27;debuglevel&#x27;: 30, &#x27;with_scheduler&#x27;: False, &#x27;ips&#x27;: [&#x27;10.9.184.138&#x27;, &#x27;::1&#x27;], &#x27;shutdown_timeout&#x27;: 5, &#x27;taskbar&#x27;: False, &#x27;with_coverage&#x27;: False, &#x27;port&#x27;: 8000, &#x27;maxthreads&#x27;: None, &#x27;softcron&#x27;: False, &#x27;server_name&#x27;: &#x27;aun-021&#x27;, &#x27;bpython&#x27;: False, &#x27;nogui&#x27;: False, &#x27;pid_filename&#x27;: &#x27;httpserver.pid&#x27;, &#x27;extcron&#x27;: False, &#x27;runcron&#x27;: False, &#x27;run_system_tests&#x27;: False, &#x27;test&#x27;: None, &#x27;folder&#x27;: &#x27;C:\\\\Users\\\\4524\\\\Documents\\\\web2py_win\\\\web2py&#x27;, &#x27;config&#x27;: &#x27;&#x27;, &#x27;minthreads&#x27;: None, &#x27;shell&#x27;: None, &#x27;run&#x27;: &#x27;&#x27;, &#x27;log_filename&#x27;: &#x27;httpserver.log&#x27;, &#x27;profiler_dir&#x27;: None, &#x27;args&#x27;: [&#x27;&#x27;], &#x27;socket_timeout&#x27;: 5, &#x27;ssl_ca_certificate&#x27;: None, &#x27;scheduler&#x27;: None, &#x27;interfaces&#x27;: None, &#x27;ssl_private_key&#x27;: &#x27;&#x27;, &#x27;scheduler_groups&#x27;: None, &#x27;password&#x27;: &#x27;&lt;ask&gt;&#x27;, &#x27;request_queue_size&#x27;: 5, &#x27;ssl_certificate&#x27;: &#x27;&#x27;, &#x27;cronjob&#x27;: False, &#x27;numthreads&#x27;: None, &#x27;quiet&#x27;: False, &#x27;import_models&#x27;: False, &#x27;timeout&#x27;: 10, &#x27;plain&#x27;: False, &#x27;nobanner&#x27;: False}&gt;</div></td></tr><tr><td style="font-weight:bold;vertical-align:top;">db_sessions</td><td style="vertical-align:top;">:</td><td><div>set([])</div></td></tr><tr><td style="font-weight:bold;vertical-align:top;">debugging</td><td style="vertical-align:top;">:</td><td><div>True</div></td></tr><tr><td style="font-weight:bold;vertical-align:top;">gluon_parent</td><td style="vertical-align:top;">:</td><td><div>C:\\Users\\4524\\Documents\\web2py_win\\web2py</div></td></tr><tr><td style="font-weight:bold;vertical-align:top;">http_accept</td><td style="vertical-align:top;">:</td><td><div>text/html,application/xhtml+xml,application/xml;q=0.9,image/webp,*/*;q=0.8</div></td></tr><tr><td style="font-weight:bold;vertical-align:top;">http_accept_encoding</td><td style="vertical-align:top;">:</td><td><div>gzip,deflate,sdch</div></td></tr><tr><td style="font-weight:bold;vertical-align:top;">http_accept_language</td><td style="vertical-align:top;">:</td><td><div>en-GB,en;q=0.8,en-US;q=0.6,vi;q=0.4</div></td></tr><tr><td style="font-weight:bold;vertical-align:top;">http_connection</td><td style="vertical-align:top;">:</td><td><div>keep-alive</div></td></tr><tr><td style="font-weight:bold;vertical-align:top;">http_cookie</td><td style="vertical-align:top;">:</td><td><div>session_id_welcome=127.0.0.1-b5873f0b-4d37-4861-b393-2a8fb5356c14; session_id_careseek2=127.0.0.1-4fd6f20a-450b-445a-86ff-25a8e28b9c53; session_id_admin=127.0.0.1-5737bf43-d36d-46ed-9c39-57fe1bd48d3e</div></td></tr><tr><td style="font-weight:bold;vertical-align:top;">http_host</td><td style="vertical-align:top;">:</td><td><div>127.0.0.1:8000</div></td></tr><tr><td style="font-weight:bold;vertical-align:top;">http_referer</td><td style="vertical-align:top;">:</td><td><div>http://127.0.0.1:8000/admin/default/design/CareSeek2</div></td></tr><tr><td style="font-weight:bold;vertical-align:top;">http_user_agent</td><td style="vertical-align:top;">:</td><td><div>Mozilla/5.0 (Windows NT 6.1; WOW64) AppleWebKit/537.36 (KHTML, like Gecko) Chrome/35.0.1916.114 Safari/537.36</div></td></tr><tr><td style="font-weight:bold;vertical-align:top;">is_jython</td><td style="vertical-align:top;">:</td><td><div>False</div></td></tr><tr><td style="font-weight:bold;vertical-align:top;">is_pypy</td><td style="vertical-align:top;">:</td><td><div>False</div></td></tr><tr><td style="font-weight:bold;vertical-align:top;">is_source</td><td style="vertical-align:top;">:</td><td><div>False</div></td></tr><tr><td style="font-weight:bold;vertical-align:top;">local_hosts</td><td style="vertical-align:top;">:</td><td><div><table><tr><td><div>10.9.184.138</div></td></tr><tr><td><div>aun-021.itsunami.com.au</div></td></tr><tr><td><div>::ffff:127.0.0.1</div></td></tr><tr><td><div>::1</div></td></tr><tr><td><div>aun-021</div></td></tr><tr><td><div>127.0.0.1</div></td></tr></table></div></td></tr><tr><td style="font-weight:bold;vertical-align:top;">path_info</td><td style="vertical-align:top;">:</td><td><div>/CareSeek2/appadmin/index</div></td></tr><tr><td style="font-weight:bold;vertical-align:top;">query_string</td><td style="vertical-align:top;">:</td><td><div></div></td></tr><tr><td style="font-weight:bold;vertical-align:top;">remote_addr</td><td style="vertical-align:top;">:</td><td><div>127.0.0.1</div></td></tr><tr><td style="font-weight:bold;vertical-align:top;">remote_port</td><td style="vertical-align:top;">:</td><td><div>52975</div></td></tr><tr><td style="font-weight:bold;vertical-align:top;">request_method</td><td style="vertical-align:top;">:</td><td><div>GET</div></td></tr><tr><td style="font-weight:bold;vertical-align:top;">request_uri</td><td style="vertical-align:top;">:</td><td><div>/CareSeek2/appadmin/index</div></td></tr><tr><td style="font-weight:bold;vertical-align:top;">script_name</td><td style="vertical-align:top;">:</td><td><div></div></td></tr><tr><td style="font-weight:bold;vertical-align:top;">server_name</td><td style="vertical-align:top;">:</td><td><div>aun-021</div></td></tr><tr><td style="font-weight:bold;vertical-align:top;">server_port</td><td style="vertical-align:top;">:</td><td><div>8000</div></td></tr><tr><td style="font-weight:bold;vertical-align:top;">server_protocol</td><td style="vertical-align:top;">:</td><td><div>HTTP/1.1</div></td></tr><tr><td style="font-weight:bold;vertical-align:top;">server_software</td><td style="vertical-align:top;">:</td><td><div>Rocket 1.2.6</div></td></tr><tr><td style="font-weight:bold;vertical-align:top;">web2py_path</td><td style="vertical-align:top;">:</td><td><div>C:\\Users\\4524\\Documents\\web2py_win\\web2py</div></td></tr><tr><td style="font-weight:bold;vertical-align:top;">web2py_version</td><td style="vertical-align:top;">:</td><td><div>2.9.5-stable+timestamp.2014.03.20.22.57.13</div></td></tr><tr><td style="font-weight:bold;vertical-align:top;">wsgi.errors</td><td style="vertical-align:top;">:</td><td><div>&lt;open file &#x27;&lt;stderr&gt;&#x27;, mode &#x27;w&#x27; at 0x01D660D0&gt;</div></td></tr><tr><td style="font-weight:bold;vertical-align:top;">wsgi.file_wrapper</td><td style="vertical-align:top;">:</td><td><div>&lt;class wsgiref.util.FileWrapper at 0x0207A148&gt;</div></td></tr><tr><td style="font-weight:bold;vertical-align:top;">wsgi.input</td><td style="vertical-align:top;">:</td><td><div>&lt;socket._fileobject object at 0x07DA7970&gt;</div></td></tr><tr><td style="font-weight:bold;vertical-align:top;">wsgi.multiprocess</td><td style="vertical-align:top;">:</td><td><div>False</div></td></tr><tr><td style="font-weight:bold;vertical-align:top;">wsgi.multithread</td><td style="vertical-align:top;">:</td><td><div>True</div></td></tr><tr><td style="font-weight:bold;vertical-align:top;">wsgi.run_once</td><td style="vertical-align:top;">:</td><td><div>False</div></td></tr><tr><td style="font-weight:bold;vertical-align:top;">wsgi.url_scheme</td><td style="vertical-align:top;">:</td><td><div>http</div></td></tr><tr><td style="font-weight:bold;vertical-align:top;">wsgi.version</td><td style="vertical-align:top;">:</td><td><div><table><tr><td><div>1</div></td></tr><tr><td><div>0</div></td></tr></table></div></td></tr><tr><td style="font-weight:bold;vertical-align:top;">wsgi_errors</td><td style="vertical-align:top;">:</td><td><div>&lt;open file &#x27;&lt;stderr&gt;&#x27;, mode &#x27;w&#x27; at 0x01D660D0&gt;</div></td></tr><tr><td style="font-weight:bold;vertical-align:top;">wsgi_file_wrapper</td><td style="vertical-align:top;">:</td><td><div>&lt;class wsgiref.util.FileWrapper at 0x0207A148&gt;</div></td></tr><tr><td style="font-weight:bold;vertical-align:top;">wsgi_input</td><td style="vertical-align:top;">:</td><td><div>&lt;socket._fileobject object at 0x07DA7970&gt;</div></td></tr><tr><td style="font-weight:bold;vertical-align:top;">wsgi_multiprocess</td><td style="vertical-align:top;">:</td><td><div>False</div></td></tr><tr><td style="font-weight:bold;vertical-align:top;">wsgi_multithread</td><td style="vertical-align:top;">:</td><td><div>True</div></td></tr><tr><td style="font-weight:bold;vertical-align:top;">wsgi_run_once</td><td style="vertical-align:top;">:</td><td><div>False</div></td></tr><tr><td style="font-weight:bold;vertical-align:top;">wsgi_url_scheme</td><td style="vertical-align:top;">:</td><td><div>http</div></td></tr><tr><td style="font-weight:bold;vertical-align:top;">wsgi_version</td><td style="vertical-align:top;">:</td><td><div><table><tr><td><div>1</div></td></tr><tr><td><div>0</div></td></tr></table></div></td></tr></table></div></td></tr><tr><td style="font-weight:bold;vertical-align:top;">extension</td><td style="vertical-align:top;">:</td><td><div>html</div></td></tr><tr><td style="font-weight:bold;vertical-align:top;">folder</td><td style="vertical-align:top;">:</td><td><div>C:\\Users\\4524\\Documents\\web2py_win\\web2py\\applications\\CareSeek2\\</div></td></tr><tr><td style="font-weight:bold;vertical-align:top;">function</td><td style="vertical-align:top;">:</td><td><div>index</div></td></tr><tr><td style="font-weight:bold;vertical-align:top;">global_settings</td><td style="vertical-align:top;">:</td><td><div><table><tr><td style="font-weight:bold;vertical-align:top;">app_folders</td><td style="vertical-align:top;">:</td><td><div>set([&#x27;C:\\\\Users\\\\4524\\\\Documents\\\\web2py_win\\\\web2py\\\\applications\\\\admin\\\\&#x27;, &#x27;C:\\\\Users\\\\4524\\\\Documents\\\\web2py_win\\\\web2py\\\\applications\\\\welcome\\\\&#x27;, &#x27;C:\\\\Users\\\\4524\\\\Documents\\\\web2py_win\\\\web2py\\\\applications\\\\CareSeek2\\\\&#x27;])</div></td></tr><tr><td style="font-weight:bold;vertical-align:top;">applications_parent</td><td style="vertical-align:top;">:</td><td><div>C:\\Users\\4524\\Documents\\web2py_win\\web2py</div></td></tr><tr><td style="font-weight:bold;vertical-align:top;">cmd_args</td><td style="vertical-align:top;">:</td><td><div><table></table></div></td></tr><tr><td style="font-weight:bold;vertical-align:top;">cmd_options</td><td style="vertical-align:top;">:</td><td><div>&lt;Values at 0x2fbedf0: {&#x27;verbose&#x27;: False, &#x27;ip&#x27;: &#x27;127.0.0.1&#x27;, &#x27;debuglevel&#x27;: 30, &#x27;with_scheduler&#x27;: False, &#x27;ips&#x27;: [&#x27;10.9.184.138&#x27;, &#x27;::1&#x27;], &#x27;shutdown_timeout&#x27;: 5, &#x27;taskbar&#x27;: False, &#x27;with_coverage&#x27;: False, &#x27;port&#x27;: 8000, &#x27;maxthreads&#x27;: None, &#x27;softcron&#x27;: False, &#x27;server_name&#x27;: &#x27;aun-021&#x27;, &#x27;bpython&#x27;: False, &#x27;nogui&#x27;: False, &#x27;pid_filename&#x27;: &#x27;httpserver.pid&#x27;, &#x27;extcron&#x27;: False, &#x27;runcron&#x27;: False, &#x27;run_system_tests&#x27;: False, &#x27;test&#x27;: None, &#x27;folder&#x27;: &#x27;C:\\\\Users\\\\4524\\\\Documents\\\\web2py_win\\\\web2py&#x27;, &#x27;config&#x27;: &#x27;&#x27;, &#x27;minthreads&#x27;: None, &#x27;shell&#x27;: None, &#x27;run&#x27;: &#x27;&#x27;, &#x27;log_filename&#x27;: &#x27;httpserver.log&#x27;, &#x27;profiler_dir&#x27;: None, &#x27;args&#x27;: [&#x27;&#x27;], &#x27;socket_timeout&#x27;: 5, &#x27;ssl_ca_certificate&#x27;: None, &#x27;scheduler&#x27;: None, &#x27;interfaces&#x27;: None, &#x27;ssl_private_key&#x27;: &#x27;&#x27;, &#x27;scheduler_groups&#x27;: None, &#x27;password&#x27;: &#x27;&lt;ask&gt;&#x27;, &#x27;request_queue_size&#x27;: 5, &#x27;ssl_certificate&#x27;: &#x27;&#x27;, &#x27;cronjob&#x27;: False, &#x27;numthreads&#x27;: None, &#x27;quiet&#x27;: False, &#x27;import_models&#x27;: False, &#x27;timeout&#x27;: 10, &#x27;plain&#x27;: False, &#x27;nobanner&#x27;: False}&gt;</div></td></tr><tr><td style="font-weight:bold;vertical-align:top;">db_sessions</td><td style="vertical-align:top;">:</td><td><div>set([])</div></td></tr><tr><td style="font-weight:bold;vertical-align:top;">debugging</td><td style="vertical-align:top;">:</td><td><div>True</div></td></tr><tr><td style="font-weight:bold;vertical-align:top;">gluon_parent</td><td style="vertical-align:top;">:</td><td><div>C:\\Users\\4524\\Documents\\web2py_win\\web2py</div></td></tr><tr><td style="font-weight:bold;vertical-align:top;">is_jython</td><td style="vertical-align:top;">:</td><td><div>False</div></td></tr><tr><td style="font-weight:bold;vertical-align:top;">is_pypy</td><td style="vertical-align:top;">:</td><td><div>False</div></td></tr><tr><td style="font-weight:bold;vertical-align:top;">is_source</td><td style="vertical-align:top;">:</td><td><div>False</div></td></tr><tr><td style="font-weight:bold;vertical-align:top;">local_hosts</td><td style="vertical-align:top;">:</td><td><div><table><tr><td><div>10.9.184.138</div></td></tr><tr><td><div>aun-021.itsunami.com.au</div></td></tr><tr><td><div>::ffff:127.0.0.1</div></td></tr><tr><td><div>::1</div></td></tr><tr><td><div>aun-021</div></td></tr><tr><td><div>127.0.0.1</div></td></tr></table></div></td></tr><tr><td style="font-weight:bold;vertical-align:top;">web2py_version</td><td style="vertical-align:top;">:</td><td><div>2.9.5-stable+timestamp.2014.03.20.22.57.13</div></td></tr></table></div></td></tr><tr><td style="font-weight:bold;vertical-align:top;">is_https</td><td style="vertical-align:top;">:</td><td><div>False</div></td></tr><tr><td style="font-weight:bold;vertical-align:top;">is_local</td><td style="vertical-align:top;">:</td><td><div>True</div></td></tr><tr><td style="font-weight:bold;vertical-align:top;">is_restful</td><td style="vertical-align:top;">:</td><td><div>False</div></td></tr><tr><td style="font-weight:bold;vertical-align:top;">now</td><td style="vertical-align:top;">:</td><td><div>datetime.datetime(2014, 5, 27, 22, 22, 2, 25000)</div></td></tr><tr><td style="font-weight:bold;vertical-align:top;">raw_args</td><td style="vertical-align:top;">:</td><td><div></div></td></tr><tr><td style="font-weight:bold;vertical-align:top;">raw_extension</td><td style="vertical-align:top;">:</td><td><div>None</div></td></tr><tr><td style="font-weight:bold;vertical-align:top;">url</td><td style="vertical-align:top;">:</td><td><div>/CareSeek2/appadmin/index</div></td></tr><tr><td style="font-weight:bold;vertical-align:top;">utcnow</td><td style="vertical-align:top;">:</td><td><div>datetime.datetime(2014, 5, 27, 12, 22, 2, 25000)</div></td></tr><tr><td style="font-weight:bold;vertical-align:top;">uuid</td><td style="vertical-align:top;">:</td><td><div>CareSeek2/127.0.0.1.2014-05-27.22-22-02.41448de5-c7cb-4f94-a012-4ff910e3d5f6</div></td></tr><tr><td style="font-weight:bold;vertical-align:top;">wsgi</td><td style="vertical-align:top;">:</td><td><div>&lt;gluon.main.LazyWSGI object at 0x07BB2730&gt;</div></td></tr></table></div>'
tRp70
sS'frames'
p71
(lp72
(dp73
S'file'
p74
S'C:\\home\\mdipierro\\make_web2py\\web2py\\gluon\\restricted.py'
p75
sS'dump'
p76
(dp77
sS'lnum'
p78
I220
sS'lines'
p79
(dp80
sS'call'
p81
S"(code='# -*- coding: utf-8 -*-\\n\\n#######################...nable auditing\\nauth.enable_record_versioning(db)\\n', environment={'A': <class 'gluon.html.A'>, 'ANY_OF': <class 'gluon.validators.ANY_OF'>, 'Auth': <class 'gluon.tools.Auth'>, 'B': <class 'gluon.html.B'>, 'BEAUTIFY': <class 'gluon.html.BEAUTIFY'>, 'BODY': <class 'gluon.html.BODY'>, 'BR': <class 'gluon.html.BR'>, 'BUTTON': <class 'gluon.html.BUTTON'>, 'CAT': <class 'gluon.html.CAT'>, 'CENTER': <class 'gluon.html.CENTER'>, ...}, layer=r'C:\\Users\\4524\\Documents\\web2py_win\\web2py\\applications\\CareSeek2\\models\\db.py')"
p82
sS'func'
p83
S'restricted'
p84
sa(dp85
g74
S'C:\\Users\\4524\\Documents\\web2py_win\\web2py\\applications\\CareSeek2\\models\\db.py'
p86
sg76
(dp87
S'Field'
p88
S"<class 'gluon.dal.Field'>"
p89
ssg78
I149
sg79
(dp90
I144
S'   )'
p91
sI145
S"db.define_table('Rating',"
p92
sI146
S"   Field('From', 'reference auth_user'),"
p93
sI147
S"   Field('To', 'reference auth_user'),"
p94
sI148
S"   Field('Comment', 'text'),"
p95
sI149
S"   Field('CriteriaID', 'reference Criteria')"
p96
sI150
S'   )'
p97
sI151
S''
sI152
S''
sI153
S"# db.define_table('Settings',"
p98
ssg81
S'()'
p99
sg83
S'<module>'
p100
sa(dp101
g74
S'C:\\home\\mdipierro\\make_web2py\\web2py\\gluon\\dal.py'
p102
sg76
(dp103
sg78
I8223
sg79
(dp104
sg81
S'(self=<DAL uri="sqlite://storage.sqlite">, tablename=\'Rating\', *fields=(<gluon.dal.Field object>, <gluon.dal.Field object>, <gluon.dal.Field object>, <gluon.dal.Field object>), **args={})'
p105
sg83
S'define_table'
p106
sa(dp107
g74
S'C:\\home\\mdipierro\\make_web2py\\web2py\\gluon\\dal.py'
p108
sg76
(dp109
sg78
I8240
sg79
(dp110
sg81
S'(self=<DAL uri="sqlite://storage.sqlite">, tablename=\'Rating\', *fields=(<gluon.dal.Field object>, <gluon.dal.Field object>, <gluon.dal.Field object>, <gluon.dal.Field object>), **args={})'
p111
sg83
S'lazy_define_table'
p112
sa(dp113
g74
S'C:\\home\\mdipierro\\make_web2py\\web2py\\gluon\\dal.py'
p114
sg76
(dp115
sg78
I8754
sg79
(dp116
sg81
S'(self=<Table Rating (id)>, db=<DAL uri="sqlite://storage.sqlite">, tablename=\'Rating\', *fields=[<gluon.dal.Field object>, <gluon.dal.Field object>, <gluon.dal.Field object>, <gluon.dal.Field object>, <gluon.dal.Field object>], **args={})'
p117
sg83
g24
sa(dp118
g74
S'C:\\home\\mdipierro\\make_web2py\\web2py\\gluon\\dal.py'
p119
sg76
(dp120
sg78
I7931
sg79
(dp121
sg81
S'(self=<DAL uri="sqlite://storage.sqlite">, name=\'From\')'
p122
sg83
S'check_reserved_keyword'
p123
sasS'pyver'
p124
S'Python 2.7.6: C:\\Users\\4524\\Documents\\web2py_win\\web2py\\web2py.exe (prefix: C:\\Python27)'
p125
sS'session'
p126
g69
(S's&\r\x00\x00<div><table><tr><td style="font-weight:bold;vertical-align:top;">auth</td><td style="vertical-align:top;">:</td><td><div><table><tr><td style="font-weight:bold;vertical-align:top;">expiration</td><td style="vertical-align:top;">:</td><td><div>3600</div></td></tr><tr><td style="font-weight:bold;vertical-align:top;">hmac_key</td><td style="vertical-align:top;">:</td><td><div>94461dee-b685-4dfa-94b5-388b07d0801d</div></td></tr><tr><td style="font-weight:bold;vertical-align:top;">last_visit</td><td style="vertical-align:top;">:</td><td><div>datetime.datetime(2014, 5, 27, 22, 22, 2, 25000)</div></td></tr><tr><td style="font-weight:bold;vertical-align:top;">remember</td><td style="vertical-align:top;">:</td><td><div>False</div></td></tr><tr><td style="font-weight:bold;vertical-align:top;">user</td><td style="vertical-align:top;">:</td><td><div><table><tr><td style="font-weight:bold;vertical-align:top;">AboutMe</td><td style="vertical-align:top;">:</td><td><div>Volunteer, Compiler, Connector of People, Wearer of unrelated hats, Yuppie. My life is a green screen.</div></td></tr><tr><td style="font-weight:bold;vertical-align:top;">Age</td><td style="vertical-align:top;">:</td><td><div>23L</div></td></tr><tr><td style="font-weight:bold;vertical-align:top;">Gender</td><td style="vertical-align:top;">:</td><td><div>Male</div></td></tr><tr><td style="font-weight:bold;vertical-align:top;">MyPict</td><td style="vertical-align:top;">:</td><td><div>auth_user.MyPict.a20944c6669f9931.696d616765732e6a7067.jpg</div></td></tr><tr><td style="font-weight:bold;vertical-align:top;">Phone</td><td style="vertical-align:top;">:</td><td><div>328412345L</div></td></tr><tr><td style="font-weight:bold;vertical-align:top;">User_Type</td><td style="vertical-align:top;">:</td><td><div>Carer</div></td></tr><tr><td style="font-weight:bold;vertical-align:top;">email</td><td style="vertical-align:top;">:</td><td><div>nhimbong94@yahoo.com.vn</div></td></tr><tr><td style="font-weight:bold;vertical-align:top;">first_name</td><td style="vertical-align:top;">:</td><td><div>Greg</div></td></tr><tr><td style="font-weight:bold;vertical-align:top;">id</td><td style="vertical-align:top;">:</td><td><div>13L</div></td></tr><tr><td style="font-weight:bold;vertical-align:top;">last_name</td><td style="vertical-align:top;">:</td><td><div>Shoehorn</div></td></tr><tr><td style="font-weight:bold;vertical-align:top;">registration_id</td><td style="vertical-align:top;">:</td><td><div></div></td></tr><tr><td style="font-weight:bold;vertical-align:top;">registration_key</td><td style="vertical-align:top;">:</td><td><div></div></td></tr><tr><td style="font-weight:bold;vertical-align:top;">reset_password_key</td><td style="vertical-align:top;">:</td><td><div></div></td></tr><tr><td style="font-weight:bold;vertical-align:top;">username</td><td style="vertical-align:top;">:</td><td><div>Alisha2</div></td></tr></table></div></td></tr><tr><td style="font-weight:bold;vertical-align:top;">user_groups</td><td style="vertical-align:top;">:</td><td><div><table><tr><td style="font-weight:bold;vertical-align:top;">10</td><td style="vertical-align:top;">:</td><td><div>user_13</div></td></tr></table></div></td></tr></table></div></td></tr><tr><td style="font-weight:bold;vertical-align:top;">flash</td><td style="vertical-align:top;">:</td><td><div>None</div></td></tr></table></div>'
tRp127
sS'etype'
p128
S"<type 'exceptions.SyntaxError'>"
p129
sS'date'
p130
S'Tue May 27 22:22:02 2014'
p131
sS'response'
p132
g69
(S's\x07\x17\x00\x00<div><table><tr><td style="font-weight:bold;vertical-align:top;">body</td><td style="vertical-align:top;">:</td><td><div>&lt;cStringIO.StringO object at 0x07BB2240&gt;</div></td></tr><tr><td style="font-weight:bold;vertical-align:top;">cookies</td><td style="vertical-align:top;">:</td><td><div><table><tr><td style="font-weight:bold;vertical-align:top;">session_id_careseek2</td><td style="vertical-align:top;">:</td><td><div>127.0.0.1-4fd6f20a-450b-445a-86ff-25a8e28b9c53<table><tr><td style="font-weight:bold;vertical-align:top;">comment</td><td style="vertical-align:top;">:</td><td><div></div></td></tr><tr><td style="font-weight:bold;vertical-align:top;">domain</td><td style="vertical-align:top;">:</td><td><div></div></td></tr><tr><td style="font-weight:bold;vertical-align:top;">expires</td><td style="vertical-align:top;">:</td><td><div></div></td></tr><tr><td style="font-weight:bold;vertical-align:top;">httponly</td><td style="vertical-align:top;">:</td><td><div></div></td></tr><tr><td style="font-weight:bold;vertical-align:top;">max-age</td><td style="vertical-align:top;">:</td><td><div></div></td></tr><tr><td style="font-weight:bold;vertical-align:top;">path</td><td style="vertical-align:top;">:</td><td><div>/</div></td></tr><tr><td style="font-weight:bold;vertical-align:top;">secure</td><td style="vertical-align:top;">:</td><td><div></div></td></tr><tr><td style="font-weight:bold;vertical-align:top;">version</td><td style="vertical-align:top;">:</td><td><div></div></td></tr></table></div></td></tr></table></div></td></tr><tr><td style="font-weight:bold;vertical-align:top;">delimiters</td><td style="vertical-align:top;">:</td><td><div><table><tr><td><div>{{</div></td></tr><tr><td><div>}}</div></td></tr></table></div></td></tr><tr><td style="font-weight:bold;vertical-align:top;">files</td><td style="vertical-align:top;">:</td><td><div><table></table></div></td></tr><tr><td style="font-weight:bold;vertical-align:top;">flash</td><td style="vertical-align:top;">:</td><td><div></div></td></tr><tr><td style="font-weight:bold;vertical-align:top;">generic_patterns</td><td style="vertical-align:top;">:</td><td><div><table><tr><td><div>*</div></td></tr></table></div></td></tr><tr><td style="font-weight:bold;vertical-align:top;">headers</td><td style="vertical-align:top;">:</td><td><div><table><tr><td style="font-weight:bold;vertical-align:top;">X-Powered-By</td><td style="vertical-align:top;">:</td><td><div>web2py</div></td></tr></table></div></td></tr><tr><td style="font-weight:bold;vertical-align:top;">menu</td><td style="vertical-align:top;">:</td><td><div><table></table></div></td></tr><tr><td style="font-weight:bold;vertical-align:top;">meta</td><td style="vertical-align:top;">:</td><td><div><table></table></div></td></tr><tr><td style="font-weight:bold;vertical-align:top;">models_to_run</td><td style="vertical-align:top;">:</td><td><div><table><tr><td><div>^\\w+\\.py$</div></td></tr><tr><td><div>^appadmin/\\w+\\.py$</div></td></tr><tr><td><div>^appadmin/index/\\w+\\.py$</div></td></tr></table></div></td></tr><tr><td style="font-weight:bold;vertical-align:top;">postprocessing</td><td style="vertical-align:top;">:</td><td><div><table></table></div></td></tr><tr><td style="font-weight:bold;vertical-align:top;">session_client</td><td style="vertical-align:top;">:</td><td><div>127.0.0.1</div></td></tr><tr><td style="font-weight:bold;vertical-align:top;">session_cookie_compression_level</td><td style="vertical-align:top;">:</td><td><div>None</div></td></tr><tr><td style="font-weight:bold;vertical-align:top;">session_cookie_expires</td><td style="vertical-align:top;">:</td><td><div>None</div></td></tr><tr><td style="font-weight:bold;vertical-align:top;">session_cookie_key</td><td style="vertical-align:top;">:</td><td><div>None</div></td></tr><tr><td style="font-weight:bold;vertical-align:top;">session_data_name</td><td style="vertical-align:top;">:</td><td><div>session_data_careseek2</div></td></tr><tr><td style="font-weight:bold;vertical-align:top;">session_file</td><td style="vertical-align:top;">:</td><td><div>&lt;open file &#x27;C:\\\\Users\\\\4524\\\\Documents\\\\web2py_win\\\\web2py\\\\applications\\\\CareSeek2\\\\sessions\\\\127.0.0.1-4fd6f20a-450b-445a-86ff-25a8e28b9c53&#x27;, mode &#x27;rb+&#x27; at 0x07B79288&gt;</div></td></tr><tr><td style="font-weight:bold;vertical-align:top;">session_filename</td><td style="vertical-align:top;">:</td><td><div>C:\\Users\\4524\\Documents\\web2py_win\\web2py\\applications\\CareSeek2\\sessions\\127.0.0.1-4fd6f20a-450b-445a-86ff-25a8e28b9c53</div></td></tr><tr><td style="font-weight:bold;vertical-align:top;">session_hash</td><td style="vertical-align:top;">:</td><td><div>206a28b1191609f486fa6bd9e753ff78</div></td></tr><tr><td style="font-weight:bold;vertical-align:top;">session_id</td><td style="vertical-align:top;">:</td><td><div>127.0.0.1-4fd6f20a-450b-445a-86ff-25a8e28b9c53</div></td></tr><tr><td style="font-weight:bold;vertical-align:top;">session_id_name</td><td style="vertical-align:top;">:</td><td><div>session_id_careseek2</div></td></tr><tr><td style="font-weight:bold;vertical-align:top;">session_locked</td><td style="vertical-align:top;">:</td><td><div>True</div></td></tr><tr><td style="font-weight:bold;vertical-align:top;">session_masterapp</td><td style="vertical-align:top;">:</td><td><div>CareSeek2</div></td></tr><tr><td style="font-weight:bold;vertical-align:top;">session_new</td><td style="vertical-align:top;">:</td><td><div>False</div></td></tr><tr><td style="font-weight:bold;vertical-align:top;">session_storage_type</td><td style="vertical-align:top;">:</td><td><div>file</div></td></tr><tr><td style="font-weight:bold;vertical-align:top;">status</td><td style="vertical-align:top;">:</td><td><div>200</div></td></tr><tr><td style="font-weight:bold;vertical-align:top;">view</td><td style="vertical-align:top;">:</td><td><div>appadmin/index.html</div></td></tr></table></div>'
tRp133
sS'locals'
p134
(dp135
S'self'
p136
S'<DAL uri="sqlite://storage.sqlite">'
p137
sS'name'
p138
S"'From'"
p139
sS'backend'
p140
S"'all'"
p141
sssS'traceback'
p142
S'Traceback (most recent call last):\n  File "/home/mdipierro/make_web2py/web2py/gluon/restricted.py", line 220, in restricted\n  File "C:\\Users\\4524\\Documents\\web2py_win\\web2py\\applications\\CareSeek2\\models\\db.py", line 149, in <module>\n    Field(\'CriteriaID\', \'reference Criteria\')\n  File "/home/mdipierro/make_web2py/web2py/gluon/dal.py", line 8223, in define_table\n  File "/home/mdipierro/make_web2py/web2py/gluon/dal.py", line 8240, in lazy_define_table\n  File "/home/mdipierro/make_web2py/web2py/gluon/dal.py", line 8754, in __init__\n  File "/home/mdipierro/make_web2py/web2py/gluon/dal.py", line 7931, in check_reserved_keyword\nSyntaxError: invalid table/column name "From" is a "ALL" reserved SQL/NOSQL keyword\n'
p143
s.