(dp1
S'output'
p2
S'Unable to open included view file: C:\\Users\\4524\\Documents\\web2py_win\\web2py\\applications\\careSeeker\\views\\template.css'
p3
sS'layer'
p4
S"'layout.html'"
p5
sS'code'
p6
S'<!--[if HTML5]><![endif]-->\r\n<!DOCTYPE html>\r\n<!-- paulirish.com/2008/conditional-stylesheets-vs-css-hacks-answer-neither/ -->\r\n<!--[if lt IE 7]><html class="ie ie6 ie-lte9 ie-lte8 ie-lte7 no-js" lang="{{=T.accepted_language or \'en\'}}"> <![endif]-->\r\n<!--[if IE 7]><html class="ie ie7 ie-lte9 ie-lte8 ie-lte7 no-js" lang="{{=T.accepted_language or \'en\'}}"> <![endif]-->\r\n<!--[if IE 8]><html class="ie ie8 ie-lte9 ie-lte8 no-js" lang="{{=T.accepted_language or \'en\'}}"> <![endif]-->\r\n<!--[if IE 9]><html class="ie9 ie-lte9 no-js" lang="{{=T.accepted_language or \'en\'}}"> <![endif]-->\r\n<!--[if (gt IE 9)|!(IE)]><!--> <html class="no-js" lang="{{=T.accepted_language or \'en\'}}"> <!--<![endif]-->\r\n<head>\r\n<title>{{=response.title or request.application}}</title>\r\n  <!--[if !HTML5]>\r\n      <meta http-equiv="X-UA-Compatible" content="IE=edge{{=not request.is_local and \',chrome=1\' or \'\'}}">\r\n  <![endif]-->\r\n  <!-- www.phpied.com/conditional-comments-block-downloads/ -->\r\n  <!-- Always force latest IE rendering engine\r\n       (even in intranet) & Chrome Frame\r\n       Remove this if you use the .htaccess -->\r\n\t   \r\n  <meta charset="utf-8" />\r\n\r\n  <!-- http://dev.w3.org/html5/markup/meta.name.html -->\r\n  <meta name="application-name" content="{{=request.application}}" />\r\n\r\n  <!-- Speaking of Google, don\'t forget to set your site up:\r\n       http://google.com/webmasters -->\r\n  <meta name="google-site-verification" content="" />\r\n\r\n  <!--  Mobile Viewport Fix\r\n        j.mp/mobileviewport & davidbcalhoun.com/2010/viewport-metatag\r\n        device-width: Occupy full width of the screen in its current orientation\r\n        initial-scale = 1.0 retains dimensions instead of zooming out if page height > device height\r\n        user-scalable = yes allows the user to zoom in -->\r\n  <meta name="viewport" content="width=device-width, initial-scale=1.0" />\r\n\r\n  <link rel="shortcut icon" href="{{=URL(\'static\',\'images/favicon.ico\')}}" type="image/x-icon">\r\n  <link rel="apple-touch-icon" href="{{=URL(\'static\',\'images/favicon.png\')}}">\r\n\r\n  <!-- All JavaScript at the bottom, except for Modernizr which enables\r\n       HTML5 elements & feature detects -->\r\n  <script src="{{=URL(\'static\',\'js/modernizr.custom.js\')}}"></script>\r\n\r\n  <!-- include stylesheets -->\r\n  {{\r\n  response.files.insert(0,URL(\'static\',\'css/web2py.css\'))\r\n  response.files.insert(1,URL(\'static\',\'css/bootstrap.min.css\'))\r\n  response.files.insert(2,URL(\'static\',\'css/bootstrap-responsive.min.css\'))\r\n  response.files.insert(3,URL(\'static\',\'css/web2py_bootstrap.css\'))\r\n  }}\r\n\r\n  {{include \'web2py_ajax.html\'}}\r\n  {{include  \'template.css\'}}\r\n\r\n  {{\r\n  # using sidebars need to know what sidebar you want to use\r\n  left_sidebar_enabled = globals().get(\'left_sidebar_enabled\',False)\r\n  right_sidebar_enabled = globals().get(\'right_sidebar_enabled\',False)\r\n  middle_columns = {0:\'span12\',1:\'span9\',2:\'span6\'}[\r\n    (left_sidebar_enabled and 1 or 0)+(right_sidebar_enabled and 1 or 0)]\r\n  }}\r\n\r\n  \r\n       <link rel="stylesheet" href="http://ajax.googleapis.com/ajax/libs/jqueryui/1.10.3/themes/ui-lightness/jquery-ui.css" type="text/css" media="all" />\r\n       <script src="http://ajax.googleapis.com/ajax/libs/jqueryui/1.10.3/jquery-ui.min.js" type="text/javascript"></script>\r\n\r\n  <noscript><link href="{{=URL(\'static\', \'css/web2py_bootstrap_nojs.css\')}}" rel="stylesheet" type="text/css" /></noscript>\r\n  {{block head}}{{end}}\r\n</head>\r\n\r\n<body>\r\n  <!-- Navbar ================================================== -->\r\n  <div class="navbar navbar-inverse">\r\n    <div class="flash">{{=response.flash or \'\'}}</div>\r\n    <div class="navbar-inner">\r\n      <div class="container">\r\n        {{is_mobile=request.user_agent().is_mobile}}\r\n        <!-- the next tag is necessary for bootstrap menus, do not remove -->\r\n        <button type="button" class="btn btn-navbar" data-toggle="collapse" data-target=".nav-collapse" style="{{=\'display:none;\' if not is_mobile else \'\'}}">\r\n          <span class="icon-bar"></span>\r\n          <span class="icon-bar"></span>\r\n          <span class="icon-bar"></span>\r\n        </button>\r\n        {{=response.logo or \'\'}}\r\n        <ul id="navbar" class="nav pull-right">{{=\'auth\' in globals() and auth.navbar(mode="dropdown") or \'\'}}</ul>\r\n        <div class="{{=\'nav-collapse\' if is_mobile else \'nav\'}}">\r\n          {{if response.menu:}}\r\n          {{=MENU(response.menu, _class=\'mobile-menu nav\' if is_mobile else \'nav\',mobile=is_mobile,li_class=\'dropdown\',ul_class=\'dropdown-menu\')}}\r\n          {{pass}}\r\n        </div><!--/.nav-collapse -->\r\n      </div>\r\n    </div>\r\n  </div><!--/top navbar -->\r\n\r\n  <div class="container">\r\n    <!-- Masthead ================================================== -->\r\n    <header class="mastheader row" id="header">\r\n      {{if response.title:}}\r\n        <div class="span12">\r\n            <div class="page-header">\r\n                <h1>\r\n                    {{=response.title}}\r\n                    <small>{{=response.subtitle or \'\'}}</small>\r\n                </h1>\r\n            </div>\r\n        </div>\r\n\t{{pass}}\r\n    </header>\r\n\r\n    <section id="main" class="main row">\r\n        {{if left_sidebar_enabled:}}\r\n        <div class="span3 left-sidebar">\r\n            {{block left_sidebar}}\r\n            <h3>Left Sidebar</h3>\r\n            <p></p>\r\n            {{end}}\r\n        </div>\r\n        {{pass}}\r\n\r\n        <div class="{{=middle_columns}}">\r\n            {{block center}}\r\n            {{include}}\r\n            {{end}}\r\n        </div>\r\n\r\n        {{if right_sidebar_enabled:}}\r\n        <div class="span3">\r\n            {{block right_sidebar}}\r\n            <h3>Right Sidebar</h3>\r\n            <p></p>\r\n            {{end}}\r\n        </div>\r\n        {{pass}}\r\n    </section><!--/main-->\r\n\r\n    <!-- Footer ================================================== -->\r\n    <div class="row">\r\n        <footer class="footer span12" id="footer">\r\n            <div class="footer-content">\r\n                {{block footer}} <!-- this is default footer -->\r\n                <div class="copyright pull-left">{{=T(\'Copyright\')}} &#169; {{=request.now.year}}</div>\r\n                <div id="poweredBy" class="pull-right">\r\n                    {{=T(\'Powered by\')}}\r\n                    <a href="http://www.web2py.com/">web2py</a>\r\n                </div>\r\n                {{end}}\r\n            </div>\r\n        </footer>\r\n    </div>\r\n\r\n  </div> <!-- /container -->\r\n\r\n  <!-- The javascript =============================================\r\n       (Placed at the end of the document so the pages load faster) -->\r\n  <script src="{{=URL(\'static\',\'js/bootstrap.min.js\')}}"></script>\r\n  <script src="{{=URL(\'static\',\'js/web2py_bootstrap.js\')}}"></script>\r\n  <!--[if lt IE 7 ]>\r\n      <script src="{{=URL(\'static\',\'js/dd_belatedpng.js\')}}"></script>\r\n      <script> DD_belatedPNG.fix(\'img, .png_bg\'); //fix any <img> or .png_bg background-images </script>\r\n      <![endif]-->\r\n  \r\n  {{if response.google_analytics_id:}}\r\n  <script src="{{=URL(\'static\',\'js/analytics.min.js\')}}"></script>\r\n  <script type="text/javascript">\r\n  analytics.initialize({\r\n    \'Google Analytics\':{trackingId:\'{{=response.google_analytics_id}}\'} \r\n  });</script>\r\n  {{pass}}\r\n  <script src="{{=URL(\'static\',\'js/share.js\',vars=dict(static=URL(\'static\',\'images\')))}}"></script>\r\n</body>\r\n</html>\r\n'
p7
sS'snapshot'
p8
(dp9
S'exception'
p10
(dp11
S'__getslice__'
p12
S"<method-wrapper '__getslice__' of exceptions.IOError object>"
p13
sS'__str__'
p14
S"<method-wrapper '__str__' of exceptions.IOError object>"
p15
sS'__reduce__'
p16
S'<built-in method __reduce__ of exceptions.IOError object>'
p17
sS'__dict__'
p18
S'{}'
p19
sS'__sizeof__'
p20
S'<built-in method __sizeof__ of exceptions.IOError object>'
p21
sS'__init__'
p22
S"<method-wrapper '__init__' of exceptions.IOError object>"
p23
sS'__setattr__'
p24
S"<method-wrapper '__setattr__' of exceptions.IOError object>"
p25
sS'__reduce_ex__'
p26
S'<built-in method __reduce_ex__ of exceptions.IOError object>'
p27
sS'__new__'
p28
S'<built-in method __new__ of type object>'
p29
sS'errno'
p30
S'2'
sS'__format__'
p31
S'<built-in method __format__ of exceptions.IOError object>'
p32
sS'__class__'
p33
S"<type 'exceptions.IOError'>"
p34
sS'filename'
p35
S"r'C:\\Users\\4524\\Documents\\web2py_win\\web2py\\applications\\careSeeker\\views\\template.css'"
p36
sS'__doc__'
p37
S"'I/O operation failed.'"
p38
sS'__getitem__'
p39
S"<method-wrapper '__getitem__' of exceptions.IOError object>"
p40
sS'__setstate__'
p41
S'<built-in method __setstate__ of exceptions.IOError object>'
p42
sS'__getattribute__'
p43
S"<method-wrapper '__getattribute__' of exceptions.IOError object>"
p44
sS'args'
p45
S"(2, 'No such file or directory')"
p46
sS'__subclasshook__'
p47
S'<built-in method __subclasshook__ of type object>'
p48
sS'__unicode__'
p49
S'<built-in method __unicode__ of exceptions.IOError object>'
p50
sS'strerror'
p51
S"'No such file or directory'"
p52
sS'__delattr__'
p53
S"<method-wrapper '__delattr__' of exceptions.IOError object>"
p54
sS'__repr__'
p55
S"<method-wrapper '__repr__' of exceptions.IOError object>"
p56
sS'__hash__'
p57
S"<method-wrapper '__hash__' of exceptions.IOError object>"
p58
ssS'evalue'
p59
S"[Errno 2] No such file or directory: 'C:\\\\Users\\\\4524\\\\Documents\\\\web2py_win\\\\web2py\\\\applications\\\\careSeeker\\\\views\\\\template.css'"
p60
sS'frames'
p61
(lp62
(dp63
S'file'
p64
S'C:\\home\\mdipierro\\make_web2py\\web2py\\gluon\\template.py'
p65
sS'dump'
p66
(dp67
sS'lnum'
p68
I447
sS'lines'
p69
(dp70
sS'call'
p71
S"(self=<gluon.template.TemplateParser object>, filename='template.css')"
p72
sS'func'
p73
S'_get_file_text'
p74
sasS'pyver'
p75
S'Python 2.7.6: C:\\Users\\4524\\Documents\\web2py_win\\web2py\\web2py.exe (prefix: C:\\Python27)'
p76
sS'etype'
p77
S"<type 'exceptions.IOError'>"
p78
sS'date'
p79
S'Sun May 18 14:32:02 2014'
p80
sS'locals'
p81
(dp82
S'self'
p83
S'<gluon.template.TemplateParser object>'
p84
sg35
S"'template.css'"
p85
sS'context'
p86
S"{'A': <class 'gluon.html.A'>, 'ANY_OF': <class 'gluon.validators.ANY_OF'>, 'Auth': <class 'gluon.tools.Auth'>, 'B': <class 'gluon.html.B'>, 'BEAUTIFY': <class 'gluon.html.BEAUTIFY'>, 'BODY': <class 'gluon.html.BODY'>, 'BR': <class 'gluon.html.BR'>, 'BUTTON': <class 'gluon.html.BUTTON'>, 'CAT': <class 'gluon.html.CAT'>, 'CENTER': <class 'gluon.html.CENTER'>, ...}"
p87
sS'filepath'
p88
S"r'C:\\Users\\4524\\Documents\\web2py_win\\web2py\\applications\\careSeeker\\views\\template.css'"
p89
sssS'traceback'
p90
S'Traceback (most recent call last):\n  File "/home/mdipierro/make_web2py/web2py/gluon/template.py", line 447, in _get_file_text\nIOError: [Errno 2] No such file or directory: \'C:\\\\Users\\\\4524\\\\Documents\\\\web2py_win\\\\web2py\\\\applications\\\\careSeeker\\\\views\\\\template.css\'\n'
p91
s.