(dp1
S'output'
p2
S"<type 'exceptions.AttributeError'> 'Row' object has no attribute 'id'"
p3
sS'layer'
p4
S'C:\\Users\\4524\\Documents\\web2py_win\\web2py\\applications\\CareSeek\\controllers/default.py'
p5
sS'code'
p6
S'# -*- coding: utf-8 -*-\n# this file is released under public domain and you can use without limitations\n\n#########################################################################\n## This is a sample controller\n## - index is the default action of any application\n## - user is required for authentication and authorization\n## - download is for downloading files uploaded in the db (does streaming)\n## - call exposes all registered services (none by default)\n#########################################################################\ndef index():\n    return dict()\n@auth.requires_login()\ndef subscribe():\n    check=check_type(request.args(0))\n    if check==1:\n        db.WorkWith.insert(Carer=int(auth.user.id), CareSeeker=int(request.args(0)))\n    if check==2:\n        db.WorkWith.insert(CareSeeker=int(auth.user.id), Carer=int(request.args(0)))\n    redirect(URL(\'default\', \'dashboard\', args=request.args(0)))\n    return dict()\n@auth.requires_login()\ndef about():\n    users=db(db.auth_user.id>0).select()\n    return dict(users=users)\ndef contact():\n    return dict()\n# return 1 if current user is carer, other is care seeker or return 2 \ndef check_type(other):\n    other_one=db(db.auth_user.id==other).select()\n    if (auth.user.User_Type=="Carer") and (other_one[0].User_Type=="Care Seeker"):\n        return 1\n    if (auth.user.User_Type=="Care Seeker") and (other_one[0].User_Type=="Carer"):\n        return 2\n    return 0\n\ndef find_connection(userID):\n    my_list=None\n    userID=int(userID)\n    if db(db.auth_user.id==userID).select()[0].User_Type=="Care Seeker":\n        my_list=db(db.WorkWith.CareSeeker==userID).select(db.WorkWith.Carer)\n    else:\n        my_list=db(db.WorkWith.Carer==userID).select(db.WorkWith.CareSeeker)\n\n    return my_list\n    \n@auth.requires_login()\ndef dashboard():\n    # find in the workwith table to see if they already have a connection or not\n    check=check_type(request.args(0))\n    subscribe=None\n    same=True\n    my_clients=db(db.auth_user.id.belongs(find_connection(request.args(0)))).select()\n    if check==1:\n        same=False\n        subscribe=db((db.WorkWith.Carer==auth.user.id) & (db.WorkWith.CareSeeker==request.args(0))).select()\n    if check==2:\n        same=False\n        subscribe=db((db.WorkWith.CareSeeker==auth.user.id) & (db.WorkWith.Carer==request.args(0))).select()\n   ##return list of forged link here\n    user = db(db.auth_user.id == request.args(0)).select().first()\n    return dict(user=user, subscribe=subscribe, same=same, my_clients=my_clients)\ndef feedback():\n    return dict()\n@auth.requires_login()\ndef myProfile():\n    return dict(form=auth.profile())\ndef mySchedule():\n    return dict()\ndef help():\n    return dict()\ndef settings():\n    return dict()\ndef search():\n    return dict()\ndef legal():\n    return dict()\ndef privacy():\n    return dict()\n\ndef user():\n    \n    """\n    exposes:\n    http://..../[app]/default/user/login\n    http://..../[app]/default/user/logout\n    http://..../[app]/default/user/register\n    http://..../[app]/default/user/profile\n    http://..../[app]/default/user/retrieve_password\n    http://..../[app]/default/user/change_password\n    http://..../[app]/default/user/manage_users (requires membership in\n    use @auth.requires_login()\n        @auth.requires_membership(\'group name\')\n        @auth.requires_permission(\'read\',\'table name\',record_id)\n    to decorate functions that need access control\n    """\n    auth.settings.formstyle = \'bootstrap\'\n    auth.settings.register_next = URL(\'dashboard\')\n    auth.settings.logged_url = URL(\'index\')\n\n    auth.settings.login_next = URL(\'dashboard\')\n    return dict(form=auth())\n\n@cache.action()\ndef download():\n    """\n    allows downloading of uploaded files\n    http://..../[app]/default/download/[filename]\n    """\n    return response.download(request, db)\n\n\ndef call():\n    """\n    exposes services. for example:\n    http://..../[app]/default/call/jsonrpc\n    decorate with @services.jsonrpc the functions to expose\n    supports xml, json, xmlrpc, jsonrpc, amfrpc, rss, csv\n    """\n    return service()\n\n\n@auth.requires_signature()\ndef data():\n    """\n    http://..../[app]/default/data/tables\n    http://..../[app]/default/data/create/[table]\n    http://..../[app]/default/data/read/[table]/[id]\n    http://..../[app]/default/data/update/[table]/[id]\n    http://..../[app]/default/data/delete/[table]/[id]\n    http://..../[app]/default/data/select/[table]\n    http://..../[app]/default/data/search/[table]\n    but URLs must be signed, i.e. linked with\n      A(\'table\',_href=URL(\'data/tables\',user_signature=True))\n    or with the signed load operator\n      LOAD(\'default\',\'data.load\',args=\'tables\',ajax=True,user_signature=True)\n    """\n    return dict(form=crud())\n\n\n# def loadProfile():\n#     pass\n\nresponse._vars=response._caller(dashboard)\n'
p7
sS'snapshot'
p8
(dp9
sS'traceback'
p10
S'Traceback (most recent call last):\n  File "/home/mdipierro/make_web2py/web2py/gluon/restricted.py", line 220, in restricted\n  File "C:\\Users\\4524\\Documents\\web2py_win\\web2py\\applications\\CareSeek\\controllers/default.py", line 144, in <module>\n  File "/home/mdipierro/make_web2py/web2py/gluon/globals.py", line 385, in <lambda>\n  File "/home/mdipierro/make_web2py/web2py/gluon/tools.py", line 3287, in f\n  File "C:\\Users\\4524\\Documents\\web2py_win\\web2py\\applications\\CareSeek\\controllers/default.py", line 53, in dashboard\n    my_clients=db(db.auth_user.id.belongs(find_connection(request.args(0)))).select()\n  File "/home/mdipierro/make_web2py/web2py/gluon/dal.py", line 10525, in select\n  File "/home/mdipierro/make_web2py/web2py/gluon/dal.py", line 2458, in select\n  File "/home/mdipierro/make_web2py/web2py/gluon/dal.py", line 1869, in select\n  File "/home/mdipierro/make_web2py/web2py/gluon/dal.py", line 1774, in _select\n  File "/home/mdipierro/make_web2py/web2py/gluon/dal.py", line 1541, in expand\n  File "/home/mdipierro/make_web2py/web2py/gluon/dal.py", line 1391, in BELONGS\n  File "/home/mdipierro/make_web2py/web2py/gluon/dal.py", line 1391, in <genexpr>\n  File "/home/mdipierro/make_web2py/web2py/gluon/dal.py", line 1552, in expand\n  File "/home/mdipierro/make_web2py/web2py/gluon/dal.py", line 2007, in represent\n  File "/home/mdipierro/make_web2py/web2py/gluon/dal.py", line 7380, in <lambda>\nAttributeError: \'Row\' object has no attribute \'id\'\n'
p11
s.