(dp1
S'output'
p2
S'missing "pass" in view'
p3
sS'layer'
p4
S'ParserContainer'
p5
sS'code'
p6
S'response.write(\'<!-- saved from url=(0050)http://getbootstrap.com/examples/starter-template/ -->\\r\\n<html lang="en"><head><meta http-equiv="Content-Type" content="text/html; charset=UTF-8">\\r\\n    <meta charset="utf-8">\\r\\n    <meta http-equiv="X-UA-Compatible" content="IE=edge">\\r\\n    <meta name="viewport" content="width=device-width, initial-scale=1">\\r\\n    <meta name="description" content="">\\r\\n    <meta name="author" content="">\\r\\n    <link rel="shortcut icon" href="">\\r\\n    <title>CareSeek</title>\\r\\n    \\r\\n    <!-- Bootstrap core CSS -->\\r\\n    \', escape=False)\nresponse.files.append(URL(\'static\',\'bootstrap.min.css\'))\nresponse.write(\'\\r\\n    \', escape=False)\nresponse.files.append(URL(\'static/css\',\'bootstrap-tagsinput.css\'))\nresponse.write(\'\\r\\n    \', escape=False)\nresponse.write(\'<script type="text/javascript"><!--\\n    // These variables are used by the web2py_ajax_init function in web2py_ajax.js (which is loaded below).\\n    var w2p_ajax_confirm_message = "\', escape=False)\nresponse.write(T(\'Are you sure you want to delete this object?\'))\nresponse.write(\'";\\n    var w2p_ajax_disable_with_message = "\', escape=False)\nresponse.write(T(\'Working...\'))\nresponse.write(\'";\\n    var w2p_ajax_date_format = "\', escape=False)\nresponse.write(T(\'%Y-%m-%d\'))\nresponse.write(\'";\\n    var w2p_ajax_datetime_format = "\', escape=False)\nresponse.write(T(\'%Y-%m-%d %H:%M:%S\'))\nresponse.write(\'";\\n    var ajax_error_500 = \\\'\', escape=False)\nresponse.write(T.M(\'An error occured, please [[reload %s]] the page\') % URL(args=request.args, vars=request.get_vars))\nresponse.write("\'\\n    //--></script>\\n", escape=False)\nresponse.files.insert(0,URL(\'static\',\'js/jquery.js\'))\nresponse.files.insert(1,URL(\'static\',\'css/calendar.css\'))\nresponse.files.insert(2,URL(\'static\',\'js/calendar.js\'))\nresponse.files.insert(3,URL(\'static\',\'js/web2py.js\'))\nresponse.include_meta()\nresponse.include_files()\nresponse.write(\'\\n\', escape=False)\nresponse.write(\'\\r\\n    \\r\\n    <!-- Custom styles for this template -->\\r\\n    <style type="text/css">\\r\\n        .navbar-inverse .navbar-nav >li>a {\\r\\n            color: #E9D6C5;\\r\\n        }\\r\\n\\r\\n        .navbar-inverse {\\r\\n            background-color: #457;\\r\\n            border-color: #080808;\\r\\n        }\\r\\n\\r\\n        .navbar-inverse .navbar-brand {\\r\\n            color: #E9D6C5;\\r\\n        }\\r\\n\\r\\n        .btn-primary {\\r\\n            color: #E9D6C5;\\r\\n            background-color: #333;\\r\\n            border-color: #111;\\r\\n        }\\r\\n        img {\\r\\n            width: 400px;\\r\\n            height: 400px;\\r\\n            padding: 5px;\\r\\n        }\\r\\n\\r\\n        body {\\r\\n            background-color: #F5F5F5;\\r\\n            padding: 60px;\\r\\n        }\\r\\n    </style>\\r\\n</head>\\r\\n\\r\\n<body>\\r\\n    <div class="navbar navbar-inverse navbar-fixed-top" role="navigation">\\r\\n        <div class="container">\\r\\n            <div class="navbar-header">\\r\\n                <button type="button" class="navbar-toggle" data-toggle="collapse" data-target=".navbar-collapse">\\r\\n                    <span class="sr-only">Toggle navigation</span>\\r\\n                    <span class="icon-bar"></span>\\r\\n                    <span class="icon-bar"></span>\\r\\n                    <span class="icon-bar"></span>\\r\\n                </button>\\r\\n                <a class="navbar-brand" href="\', escape=False)\nresponse.write(URL(\'default\',\'index\'))\nresponse.write(\'">CareSeek</a>\\r\\n            </div>\\r\\n            \', escape=False)\nresponse.write(\'\\r\\n    <div class="navbar-collapse collapse">\\r\\n                <ul class="nav navbar-nav navbar-right">\\r\\n                    <li><a href=\\\'\', escape=False)\nresponse.write(URL("default", "search"))\nresponse.write(\'\\\' id="searchPage">Search</a></li>\\r\\n                    <li><a href=\\\'\', escape=False)\nresponse.write(URL("default", "mySchedule"))\nresponse.write(\'\\\' id="schedule">Schedule</a></li>\\r\\n                    <li><a href=\\\'\', escape=False)\nresponse.write(URL("default", "myProfile", args=auth.user.id))\nresponse.write(\'\\\' id="profile">My Profile</a></li>\\r\\n                    <li><a href=\\\'\', escape=False)\nresponse.write(URL("default", "settings"))\nresponse.write(\'\\\' id="usrSettings">Settings</a></li>\\r\\n                    <li><a href=\\\'\', escape=False)\nresponse.write(URL("default", "help"))\nresponse.write(\'\\\' id="Help">Help</a></li>\\r\\n                    <li><a  href=\\\'\', escape=False)\nresponse.write(URL("default", "user/logout"))\nresponse.write(\'\\\' id="logout">Logout</a></li>\\r\\n                    <li><a href=\\\'\', escape=False)\nresponse.write(URL("default", "test"))\nresponse.write(\'\\\' id="demo">Demo</a></li>\\r\\n\\r\\n                </ul>\\r\\n            </div>\\r\\n    \', escape=False)\nresponse.write(\'\\r\\n        </div>\\r\\n    </div>\\r\\n    \', escape=False)\nresponse.write(\'\\r\\n    <div class="container-fluid">\\r\\n            \', escape=False)\nresponse.write(\'\\r\\n\\r\\n<!--left-->\\r\\n<div class="container-fluid">\\r\\n\\t<div class="row">\\r\\n\\t<div class = "col-xs-3 col-sm-3 col-md-3 col-lg-3">\\r\\n\\t\\t<div class="panel panel-default">\\r\\n\\t\\t\\t<div class="panel-heading">\\r\\n\\t\\t\\t   <h4 class="text-primary">\\r\\n\\t\\t\\t\\t\\t<p>\\r\\n\\t\\t\\t\\t\\t\\tMy \', escape=False)\nresponse.write(co_worker)\nresponse.write(\'s\\r\\n\\t\\t\\t\\t   </p>\\r\\n\\t\\t\\t\\t\\t\', escape=False)\nif not same:\n    response.write(\'\\r\\n\\t\\t\\t\\t\\t\', escape=False)\n    if not subscribe:\n        response.write("\\r\\n\\t\\t\\t\\t\\t   <a href=\'", escape=False)\n        response.write(URL("default", "subscribe", args=user.id))\n        response.write(\'\\\' class="btn btn-success">Forge link</a>\\r\\n\\t\\t\\t\\t\\t\', escape=False)\n    else:\n        response.write(\'\\r\\n\\t\\t\\t\\t\\t\\t<button type="button" class="btn btn-primary"> Subscribed</button>\\r\\n\\t\\t\\t\\t\\t\', escape=False)\n        pass\n    response.write(\'\\r\\n\\t\\t\\t\\t\\t\', escape=False)\n    pass\nresponse.write(\'\\r\\n\\t\\t\\t  </h4>\\r\\n\\t\\t\\t</div>\\r\\n\\t\\t\\t<div class="panel-body">\\r\\n\\t\\t\\t\\t   \', escape=False)\nfor client in my_clients:\n    response.write(\'\\r\\n\\t\\t\\t\\t\\t\', escape=False)\n    name=client[0]+" "+client[1]\n    response.write(\'\\r\\n\\t\\t\\t\\t    \', escape=False)\n    response.write(A(name ,_href=URL(\'default\', \'myProfile\',args=client[2])))\n    response.write(\'<br>\\r\\n\\t\\t\\t\\t\\t\', escape=False)\n    pass\nresponse.write(\'\\r\\n\\t\\t\\t</div>\\r\\n\\t\\t</div>\\r\\n\\t</div>\\r\\n\\r\\n\\t<!--Main content start-->\\r\\n\\t<div class = "col-xs-6 col-sm-6 col-md-6 col-lg-6">\\r\\n\\t\\t<div class = "col-xs-12 col-xs-offset-1 col-sm-12 col-md-12 col-md-offset-1 col-lg-12">\\r\\n\\t\\t\\t<h1 class="text-success">\\r\\n\\t\\t\\t\\t\\t\', escape=False)\nresponse.write(user.first_name)\nresponse.write(\' \', escape=False)\nresponse.write(user.last_name)\nresponse.write(\'\\r\\n\\t\\t\\t\\t\\t\', escape=False)\nif(user.id == auth.user.id):\n    response.write("\\r\\n\\t\\t\\t\\t\\t\\t<a href=\'", escape=False)\n    response.write(URL("default", "settings"))\n    response.write(\'\\\' class="btn">Edit</a>\\r\\n\\t\\t\\t\\t\\t\', escape=False)\n    pass\nresponse.write(\'\\r\\n\\t\\t\\t</h1>\\r\\n\\t\\t\\t<div class="col-md-6">\\r\\n\\t\\t\\t\\t<img class="img-responsive" src="\', escape=False)\nresponse.write(URL(\'download\',args=user.MyPict))\nresponse.write(\'">\\r\\n\\t\\t\\t</div>\\r\\n\\t\\t\\t<div class="col-md-6">\\r\\n\\t\\t\\t\\t<p><strong>User type:</strong> \', escape=False)\nresponse.write(user.User_Type)\nresponse.write(\'</p>\\r\\n\\t\\t\\t\\t<p><strong>Age:</strong> \', escape=False)\nresponse.write(user.Age)\nresponse.write(\'</p>\\r\\n\\t\\t\\t\\t<p><strong>Gender:</strong> \', escape=False)\nresponse.write(user.Gender)\nresponse.write(\'</p>\\r\\n\\t\\t\\t\\t<p><strong>Email:</strong> \', escape=False)\nresponse.write(user.email)\nresponse.write(\'</p>\\r\\n\\t\\t\\t\\t<p class="text-success">\\r\\n\\t\\t\\t\\t   About me:\\r\\n\\t\\t\\t\\t</p>\\r\\n\\t\\t\\t\\t<p>\\r\\n\\t\\t\\t\\t\\t\', escape=False)\nresponse.write(user.AboutMe)\nresponse.write(\'\\r\\n\\t\\t\\t\\t</p>\\r\\n\\t\\t\\t\\t\', escape=False)\nif(user.User_Type == "Carer"):\n    response.write(\'\\r\\n\\t\\t\\t\\t<p><strong>View my R\\xc3\\xa9sum\\xc3\\xa9:</strong> <a href="\', escape=False)\n    response.write(cvUrl)\n    response.write(\'">Cick to view</a> </p>\\r\\n\\t\\t\\t</div>\\r\\n\\t\\t</div>\\r\\n\\t</div> <!--ENd main content -->\\r\\n\\r\\n\\t<!--right-->\\r\\n\\t<div class = "col-xs-3 col-sm-3 col-md-3 col-lg-3">\\r\\n\\t\\t<div class="panel panel-default">\\r\\n\\t\\t\\t<div class="panel-heading">\\r\\n\\t\\t\\t   <h4 class="text-primary">\\r\\n\\t\\t\\t\\t   Ratings:\\r\\n\\t\\t\\t  </h4>\\r\\n\\t\\t\\t</div>\\r\\n\\t\\t<div class="panel-body"></div>\\r\\n\\t\\t</div>\\r\\n\\t</div>\\r\\n\\t</div>\\r\\n\\t</div>\\r\\n</div> <!-- end contianer -->\\r\\n\', escape=False)\n    response.write(\'\\r\\n    </div>\\r\\n\', escape=False)\n    response.write(\'\\r\\n    <!-- The javascript =============================================\\r\\n    (Placed at the end of the document so the pages load faster) -->\\r\\n    <script src="\', escape=False)\n    response.write(URL(\'static/js\',\'jquery-1.11.0.min.js\'))\n    response.write(\'"></script>\\r\\n    <script src="\', escape=False)\n    response.write(URL(\'static/js\',\'bootstrap.min.js\'))\n    response.write(\'"></script>\\r\\n    <script src="\', escape=False)\n    response.write(URL(\'static/js\',\'formTest.js\'))\n    response.write(\'"></script>\\r\\n    <script src="\', escape=False)\n    response.write(URL(\'static/js\',\'sanitise.js\'))\n    response.write(\'"></script>\\r\\n    <script src="\', escape=False)\n    response.write(URL(\'static/js\',\'search.js\'))\n    response.write(\'"></script>\\r\\n    <script src="\', escape=False)\n    response.write(URL(\'static/js\',\'userReg.js\'))\n    response.write(\'"></script>\\r\\n</body>\\r\\n</html>\\r\\n\', escape=False)'
p7
sS'snapshot'
p8
(dp9
S'exception'
p10
(dp11
S'__module__'
p12
S"'gluon.rocket'"
p13
sS'__getslice__'
p14
S"<method-wrapper '__getslice__' of SocketTimeout object>"
p15
sS'__str__'
p16
S"<method-wrapper '__str__' of SocketTimeout object>"
p17
sS'__reduce__'
p18
S'<built-in method __reduce__ of SocketTimeout object>'
p19
sS'__dict__'
p20
S'{}'
p21
sS'__sizeof__'
p22
S'<built-in method __sizeof__ of SocketTimeout object>'
p23
sS'__weakref__'
p24
S'None'
p25
sS'__init__'
p26
S"<method-wrapper '__init__' of SocketTimeout object>"
p27
sS'__setattr__'
p28
S"<method-wrapper '__setattr__' of SocketTimeout object>"
p29
sS'__reduce_ex__'
p30
S'<built-in method __reduce_ex__ of SocketTimeout object>'
p31
sS'__new__'
p32
S'<built-in method __new__ of type object>'
p33
sS'__format__'
p34
S'<built-in method __format__ of SocketTimeout object>'
p35
sS'__class__'
p36
S"<class 'gluon.rocket.SocketTimeout'>"
p37
sS'__doc__'
p38
S"'Exception for when a socket times out between requests.'"
p39
sS'__getitem__'
p40
S"<method-wrapper '__getitem__' of SocketTimeout object>"
p41
sS'__setstate__'
p42
S'<built-in method __setstate__ of SocketTimeout object>'
p43
sS'__getattribute__'
p44
S"<method-wrapper '__getattribute__' of SocketTimeout object>"
p45
sS'args'
p46
S"('Socket timed out before request.',)"
p47
sS'__subclasshook__'
p48
S'<built-in method __subclasshook__ of type object>'
p49
sS'__unicode__'
p50
S'<built-in method __unicode__ of SocketTimeout object>'
p51
sS'__delattr__'
p52
S"<method-wrapper '__delattr__' of SocketTimeout object>"
p53
sS'__repr__'
p54
S"<method-wrapper '__repr__' of SocketTimeout object>"
p55
sS'__hash__'
p56
S"<method-wrapper '__hash__' of SocketTimeout object>"
p57
ssS'evalue'
p58
S'Socket timed out before request.'
p59
sS'frames'
p60
(lp61
(dp62
S'file'
p63
S'C:\\home\\mdipierro\\make_web2py\\web2py\\gluon\\rocket.py'
p64
sS'dump'
p65
(dp66
sS'lnum'
p67
I1337
sS'lines'
p68
(dp69
sS'call'
p70
S'(self=<WSGIWorker(Thread-22, started daemon 6116)>)'
p71
sS'func'
p72
S'run'
p73
sa(dp74
g63
S'C:\\home\\mdipierro\\make_web2py\\web2py\\gluon\\rocket.py'
p75
sg65
(dp76
sg67
I1830
sg68
(dp77
sg70
S'(self=<WSGIWorker(Thread-22, started daemon 6116)>, conn=<gluon.rocket.Connection object>)'
p78
sg72
S'run_app'
p79
sa(dp80
g63
S'C:\\home\\mdipierro\\make_web2py\\web2py\\gluon\\rocket.py'
p81
sg65
(dp82
sg67
I1650
sg68
(dp83
sg70
S'(self=<WSGIWorker(Thread-22, started daemon 6116)>, sock_file=<socket._fileobject object>, conn=<gluon.rocket.Connection object>)'
p84
sg72
S'build_environ'
p85
sa(dp86
g63
S'C:\\home\\mdipierro\\make_web2py\\web2py\\gluon\\rocket.py'
p87
sg65
(dp88
sg67
I1401
sg68
(dp89
sg70
S'(self=<WSGIWorker(Thread-22, started daemon 6116)>, sock_file=<socket._fileobject object>)'
p90
sg72
S'read_request_line'
p91
sasS'pyver'
p92
S'Python 2.7.6: C:\\Users\\Daniel\\Desktop\\web2py\\web2py.exe (prefix: C:\\Python27)'
p93
sS'etype'
p94
S"<class 'gluon.rocket.SocketTimeout'>"
p95
sS'date'
p96
S'Tue May 27 01:49:32 2014'
p97
sS'locals'
p98
(dp99
S'sock_file'
p100
S'<socket._fileobject object>'
p101
sS'self'
p102
S'<WSGIWorker(Thread-22, started daemon 6116)>'
p103
sssS'traceback'
p104
S'Traceback (most recent call last):\n  File "/home/mdipierro/make_web2py/web2py/gluon/rocket.py", line 1337, in run\n  File "/home/mdipierro/make_web2py/web2py/gluon/rocket.py", line 1830, in run_app\n  File "/home/mdipierro/make_web2py/web2py/gluon/rocket.py", line 1650, in build_environ\n  File "/home/mdipierro/make_web2py/web2py/gluon/rocket.py", line 1401, in read_request_line\nSocketTimeout: Socket timed out before request.\n'
p105
s.