(dp1
S'output'
p2
S"<type 'exceptions.ValueError'> invalid literal for long() with base 10: 'danielce90@gmail.com'"
p3
sS'layer'
p4
S'C:\\Users\\Daniel\\Desktop\\web2py\\applications\\CareSeek\\controllers/default.py'
p5
sS'code'
p6
S'# -*- coding: utf-8 -*-\n# this file is released under public domain and you can use without limitations\n\n#########################################################################\n## This is a sample controller\n## - index is the default action of any application\n## - user is required for authentication and authorization\n## - download is for downloading files uploaded in the db (does streaming)\n## - call exposes all registered services (none by default)\n#########################################################################\ndef index():\n    """\n    example action using the internationalization operator T and flash\n    rendered by views/default/index.html or views/generic.html\n\n    if you need a simple wiki simply replace the two lines below with:\n    return auth.wiki()\n    """\n    return dict()\n\ndef about():\n    return dict()\ndef contact():\n    return dict()\ndef dashboard():\n    return dict()\ndef feedback():\n    return dict()\ndef myProfile():\n    return dict()\ndef mySchedule():\n    return dict()\ndef help():\n    return dict()\ndef settings():\n    return dict()\ndef search():\n    return dict()\ndef legal():\n    return dict()\ndef privacy():\n    return dict()\n\ndef user():\n    \n    """\n    exposes:\n    http://..../[app]/default/user/login\n    http://..../[app]/default/user/logout\n    http://..../[app]/default/user/register\n    http://..../[app]/default/user/profile\n    http://..../[app]/default/user/retrieve_password\n    http://..../[app]/default/user/change_password\n    http://..../[app]/default/user/manage_users (requires membership in\n    use @auth.requires_login()\n        @auth.requires_membership(\'group name\')\n        @auth.requires_permission(\'read\',\'table name\',record_id)\n    to decorate functions that need access control\n    """\n    auth.settings.formstyle = \'bootstrap\'\n    auth.settings.register_next = URL(\'profile\')\n    auth.settings.logged_url = URL(\'index\')\n\n    auth.settings.login_next = URL(\'dashboard\')\n    return dict(form=auth())\n\n@cache.action()\ndef download():\n    """\n    allows downloading of uploaded files\n    http://..../[app]/default/download/[filename]\n    """\n    return response.download(request, db)\n\n\ndef call():\n    """\n    exposes services. for example:\n    http://..../[app]/default/call/jsonrpc\n    decorate with @services.jsonrpc the functions to expose\n    supports xml, json, xmlrpc, jsonrpc, amfrpc, rss, csv\n    """\n    return service()\n\n\n@auth.requires_signature()\ndef data():\n    """\n    http://..../[app]/default/data/tables\n    http://..../[app]/default/data/create/[table]\n    http://..../[app]/default/data/read/[table]/[id]\n    http://..../[app]/default/data/update/[table]/[id]\n    http://..../[app]/default/data/delete/[table]/[id]\n    http://..../[app]/default/data/select/[table]\n    http://..../[app]/default/data/search/[table]\n    but URLs must be signed, i.e. linked with\n      A(\'table\',_href=URL(\'data/tables\',user_signature=True))\n    or with the signed load operator\n      LOAD(\'default\',\'data.load\',args=\'tables\',ajax=True,user_signature=True)\n    """\n    return dict(form=crud())\n\ndef loadSettings():\n\tpersonId = auth.user.email\n\tprint personId\n\tif(auth.user.User_Type == "Carer"):\n\t\tfor entry in db(db.Carer.Email == personId).select():\n\t\t\tprint entry.Email.email\n\telif(auth.user.User_Type == "Care Seeker"):\n\t\tfor entry in db().select(db.CareSeeker.personId):\n\t\t\tprint entry.Email.email\n        \n# def loadProfile():\n#     pass\n\nresponse._vars=response._caller(loadSettings)\n'
p7
sS'snapshot'
p8
(dp9
sS'traceback'
p10
S'Traceback (most recent call last):\n  File "/home/mdipierro/make_web2py/web2py/gluon/restricted.py", line 220, in restricted\n  File "C:\\Users\\Daniel\\Desktop\\web2py\\applications\\CareSeek\\controllers/default.py", line 116, in <module>\n  File "/home/mdipierro/make_web2py/web2py/gluon/globals.py", line 385, in <lambda>\n  File "C:\\Users\\Daniel\\Desktop\\web2py\\applications\\CareSeek\\controllers/default.py", line 107, in loadSettings\n    for entry in db(db.Carer.Email == personId).select():\n  File "/home/mdipierro/make_web2py/web2py/gluon/dal.py", line 10525, in select\n  File "/home/mdipierro/make_web2py/web2py/gluon/dal.py", line 2458, in select\n  File "/home/mdipierro/make_web2py/web2py/gluon/dal.py", line 1869, in select\n  File "/home/mdipierro/make_web2py/web2py/gluon/dal.py", line 1774, in _select\n  File "/home/mdipierro/make_web2py/web2py/gluon/dal.py", line 1541, in expand\n  File "/home/mdipierro/make_web2py/web2py/gluon/dal.py", line 1438, in EQ\n  File "/home/mdipierro/make_web2py/web2py/gluon/dal.py", line 1552, in expand\n  File "/home/mdipierro/make_web2py/web2py/gluon/dal.py", line 2014, in represent\nValueError: invalid literal for long() with base 10: \'danielce90@gmail.com\'\n'
p11
s.