(dp1
S'output'
p2
S"<type 'exceptions.NameError'> name 'interests' is not defined"
p3
sS'layer'
p4
S'C:\\Users\\Daniel\\Desktop\\web2py\\applications\\CareSeek\\views\\default/settings.html'
p5
sS'code'
p6
S'response.write(\'<!-- saved from url=(0050)http://getbootstrap.com/examples/starter-template/ -->\\r\\n<html lang="en"><head><meta http-equiv="Content-Type" content="text/html; charset=UTF-8">\\r\\n    <meta charset="utf-8">\\r\\n    <meta http-equiv="X-UA-Compatible" content="IE=edge">\\r\\n    <meta name="viewport" content="width=device-width, initial-scale=1">\\r\\n    <meta name="description" content="">\\r\\n    <meta name="author" content="">\\r\\n    <link rel="shortcut icon" href="">\\r\\n    <title>CareSeek</title>\\r\\n    \\r\\n    <!-- Bootstrap core CSS -->\\r\\n    \', escape=False)\nresponse.files.append(URL(\'static\',\'bootstrap.min.css\'))\nresponse.write(\'\\r\\n    \', escape=False)\nresponse.files.append(URL(\'static/css\',\'bootstrap-tagsinput.css\'))\nresponse.write(\'\\r\\n    \', escape=False)\nresponse.write(\'<script type="text/javascript"><!--\\n    // These variables are used by the web2py_ajax_init function in web2py_ajax.js (which is loaded below).\\n    var w2p_ajax_confirm_message = "\', escape=False)\nresponse.write(T(\'Are you sure you want to delete this object?\'))\nresponse.write(\'";\\n    var w2p_ajax_disable_with_message = "\', escape=False)\nresponse.write(T(\'Working...\'))\nresponse.write(\'";\\n    var w2p_ajax_date_format = "\', escape=False)\nresponse.write(T(\'%Y-%m-%d\'))\nresponse.write(\'";\\n    var w2p_ajax_datetime_format = "\', escape=False)\nresponse.write(T(\'%Y-%m-%d %H:%M:%S\'))\nresponse.write(\'";\\n    var ajax_error_500 = \\\'\', escape=False)\nresponse.write(T.M(\'An error occured, please [[reload %s]] the page\') % URL(args=request.args, vars=request.get_vars))\nresponse.write("\'\\n    //--></script>\\n", escape=False)\nresponse.files.insert(0,URL(\'static\',\'js/jquery.js\'))\nresponse.files.insert(1,URL(\'static\',\'css/calendar.css\'))\nresponse.files.insert(2,URL(\'static\',\'js/calendar.js\'))\nresponse.files.insert(3,URL(\'static\',\'js/web2py.js\'))\nresponse.include_meta()\nresponse.include_files()\nresponse.write(\'\\n\', escape=False)\nresponse.write(\'\\r\\n    \\r\\n    <!-- Custom styles for this template -->\\r\\n    <style type="text/css">\\r\\n        .navbar-inverse .navbar-nav >li>a {\\r\\n            color: #E9D6C5;\\r\\n        }\\r\\n\\r\\n        .navbar-inverse {\\r\\n            background-color: #457;\\r\\n            border-color: #080808;\\r\\n        }\\r\\n\\r\\n        .navbar-inverse .navbar-brand {\\r\\n            color: #E9D6C5;\\r\\n        }\\r\\n\\r\\n        .btn-primary {\\r\\n            color: #E9D6C5;\\r\\n            background-color: #333;\\r\\n            border-color: #111;\\r\\n        }\\r\\n\\r\\n        body {\\r\\n            background-color: #F5F5F5;\\r\\n            padding: 60px;\\r\\n        }\\r\\n    </style>\\r\\n</head>\\r\\n\\r\\n<body>\\r\\n    <div class="navbar navbar-inverse navbar-fixed-top" role="navigation">\\r\\n        <div class="container">\\r\\n            <div class="navbar-header">\\r\\n                <button type="button" class="navbar-toggle" data-toggle="collapse" data-target=".navbar-collapse">\\r\\n                    <span class="sr-only">Toggle navigation</span>\\r\\n                    <span class="icon-bar"></span>\\r\\n                    <span class="icon-bar"></span>\\r\\n                    <span class="icon-bar"></span>\\r\\n                </button>\\r\\n                <a class="navbar-brand" href="\', escape=False)\nresponse.write(URL(\'default\',\'index\'))\nresponse.write(\'">CareSeek</a>\\r\\n            </div>\\r\\n            \', escape=False)\nresponse.write(\'\\r\\n    <div class="navbar-collapse collapse">\\r\\n                <ul class="nav navbar-nav navbar-right">\\r\\n                    <li><a href=\\\'\', escape=False)\nresponse.write(URL("default", "search"))\nresponse.write(\'\\\' id="searchPage">Search</a></li>\\r\\n                    <li><a href=\\\'\', escape=False)\nresponse.write(URL("default", "mySchedule"))\nresponse.write(\'\\\' id="schedule">Schedule</a></li>\\r\\n                    <li><a href=\\\'\', escape=False)\nresponse.write(URL("default", "myProfile"))\nresponse.write(\'\\\' id="profile">My Profile</a></li>\\r\\n                    <li><a href=\\\'\', escape=False)\nresponse.write(URL("default", "settings"))\nresponse.write(\'\\\' id="usrSettings">Settings</a></li>\\r\\n                    <li><a href=\\\'\', escape=False)\nresponse.write(URL("default", "help"))\nresponse.write(\'\\\' id="Help">Help</a></li>\\r\\n                    <li><a  href=\\\'\', escape=False)\nresponse.write(URL("default", "user/logout"))\nresponse.write(\'\\\' id="logout">Logout</a></li>\\r\\n                </ul>\\r\\n            </div>\\r\\n    \', escape=False)\nresponse.write(\'\\r\\n        </div>\\r\\n    </div>\\r\\n    \', escape=False)\nresponse.write(\'\\r\\n    <div class="container-fluid">\\r\\n            \', escape=False)\nresponse.write(\'\\r\\n\\r\\n<div class="container-fluid">\\r\\n    <div class="col-xs-10 col-xs-offset-1 col-sm-10 col-sm-offset-1 col-md-10 col-md-offset-1">\\r\\n        <h1 class="page-header">Settings</h1>\\r\\n        <div class="row">\\r\\n            <!-- Current Email -->\\r\\n            <label>Your Email</label>\\r\\n            <div class="row">\\r\\n                <div class="col-xs-11 col-sm-11 col-md-11"> \', escape=False)\nresponse.write(LOAD("default", "loadEmail.load"))\nresponse.write(\' </div>\\r\\n                <div class="col-xs-1 col-sm-1 col-md-1 ">\\r\\n                    <input type="submit" name="submit" value="Edit" class="btn btn-primary pull-right" id="editEmail">\\r\\n                </div>\\r\\n            </div>\\r\\n            <!-- Change email form -->\\r\\n                <div class="panel-body" id="editEmailBox" style="display: none">\\r\\n                    <form role=\\\'form\\\'>\\r\\n                        <div class="form-group">\\r\\n                            <label>Enter new email</label>\\r\\n                            <div class="input-group">\\r\\n                                <input type="email" class="form-control" id="emailInput" name="newEmail" placeholder="example@email.com">\\r\\n                                <span class="input-group-btn">\\r\\n                                    <input class="btn btn-primary pull-right" type="submit" name="submit" value="Save" id="saveEmail" action=\\\'\\\'></input>\\r\\n                                </span>\\r\\n                            </div>\\r\\n                        </div>\\r\\n                    </form>\\r\\n                </div>\\r\\n         </div> <!-- End of email setting -->\\r\\n\\r\\n        <div class="row">\\r\\n            <!-- Current password -->\\r\\n            <label>Your Password</label>\\r\\n            <div class="row">\\r\\n                <div class="col-xs-11 col-sm-11 col-md-11" type=\\\'password\\\'> \\xe2\\x80\\xa2\\xe2\\x80\\xa2\\xe2\\x80\\xa2\\xe2\\x80\\xa2\\xe2\\x80\\xa2\\xe2\\x80\\xa2\\xe2\\x80\\xa2\\xe2\\x80\\xa2\\xe2\\x80\\xa2\\xe2\\x80\\xa2\\xe2\\x80\\xa2\\xe2\\x80\\xa2\\xe2\\x80\\xa2 </div>\\r\\n                <div class="col-xs-1 col-sm-1 col-md-1 ">\\r\\n                    <input type="submit" name="submit" value="Edit" class="btn btn-primary pull-right" id="editPass">\\r\\n                </div>\\r\\n            </div>\\r\\n            <!-- Change Pass form -->\\r\\n            <div class="panel-body" id="editPassBox" style="display: none">\\r\\n                <form role=\\\'form\\\'>\\r\\n                   <div class="form-group">\\r\\n                        <label for="">Old password</label>\\r\\n                        <div class="input-group">\\r\\n                            <input type="password" class="form-control" id="oldPass" name="oldPass" placeholder="Enter old password">\\r\\n                            <span class="input-group-addon"></span>\\r\\n                        </div>\\r\\n                    </div>\\r\\n                    <div class="form-group">\\r\\n                        <label for="">New password</label>\\r\\n                        <div class="input-group">\\r\\n                            <input type="password" class="form-control" id="newPass" name="newPass" placeholder="Enter new password...">\\r\\n                            <span class="input-group-addon"></span>\\r\\n                        </div>\\r\\n                    </div>\\r\\n                    <div class="form-group">\\r\\n                        <label for="">Confirm new password</label>\\r\\n                        <div class="input-group">\\r\\n                            <input type="password" class="form-control" id="confNewPass" name="confNewPass" placeholder="Enter new password again...">\\r\\n                            <span class="input-group-addon"></span>\\r\\n                        </div>\\r\\n                    </div>\\r\\n                    <input class="btn btn-primary pull-right" type="submit" name="submit" value="Save" id="saveEmail" action=\\\'\\\'></input>\\r\\n                </form>\\r\\n            </div>\\r\\n         </div> <!-- End of password setting -->\\r\\n\\r\\n        <div class="row">\\r\\n            <!-- Current Interests -->\\r\\n            <label>Your Interests</label>\\r\\n            <div class="row">\\r\\n                <div class="col-xs-11 col-sm-11 col-md-11" type=\\\'password\\\'>\\r\\n\\t\\t\\t\\t\\t\', escape=False)\ninterests\nresponse.write(\'\\r\\n                    \', escape=False)\nresponse.write(LOAD(\'default\', \'loadInterests.load\', ajax=True, target=\'interests\'))\nresponse.write(\'\\r\\n                    \', escape=False)\nprint interests\nresponse.write(\'\\r\\n                    \', escape=False)\nvalue = \'\'\nresponse.write(\'\\r\\n                    \', escape=False)\nfor item in interests:\n    response.write(\'\\r\\n                        \', escape=False)\n    value = "\'" + item + "\'" + " ,"\n    response.write(\'\\r\\n                    \', escape=False)\n    pass\nresponse.write(\'\\r\\n                    <input class="col-xs-11 col-sm-11 col-md-11" type="text" id="interests" value=\\\'\', escape=False)\nresponse.write(value)\nresponse.write(\'\\\' data-role="tagsinput"></input>\\r\\n                </div>\\r\\n                <div class="col-xs-1 col-sm-1 col-md-1 ">\\r\\n                    <input type="submit" name="submit" value="Edit" class="btn btn-primary pull-right" id="editInterests">\\r\\n                </div>\\r\\n            </div>\\r\\n            <!-- Change Interests form -->\\r\\n            <div class="panel-body" id="editInterestBox" style="display:none">\\r\\n                <form role=\\\'form\\\'>\\r\\n                   <div class="form-group">\\r\\n                        <label for="">Update Interests</label>\\r\\n                        <div class="input-group">\\r\\n                            <input type="text" id="newInterests" value=\\\'\\\' data-role="tagsinput"/>\\r\\n                        </div>\\r\\n                        <input class="btn btn-primary pull-right" type="submit" name="submit" value="Save" id="saveInterests" action=\\\'\\\'></input>\\r\\n                    </div>\\r\\n                    \\r\\n                </form>\\r\\n            </div>\\r\\n         </div> <!-- End of password setting --> \\r\\n                                                \\r\\n            <div class="form-group">\\r\\n                <label for="InputEmail">Your location</label>\\r\\n                <div class="input-group">\\r\\n                    <input type="email" class="form-control" id="location" name="location" placeholder="Enter location...">\\r\\n                    <span class="input-group-addon"></span>\\r\\n                </div>\\r\\n            </div>\\r\\n            <div class="form-group">\\r\\n                <label for="InputEmail">Your contact number</label>\\r\\n                <div class="input-group">\\r\\n                    <input type="email" class="form-control" id="contact" name="contact" placeholder="Enter contact number...">\\r\\n                    <span class="input-group-addon"></span>\\r\\n                </div>\\r\\n            </div>\\r\\n            <div class="form-group">\\r\\n                <label for="InputEmail">Update your CV</label>\\r\\n                <div class="input-group">\\r\\n                    <input type="file" title="Search for a file to add">\\r\\n                </div>\\r\\n            </div>\\r\\n            <div class="form-group">\\r\\n                <label for="InputMessage">Description</label>\\r\\n                <div class="input-group">\\r\\n                    <textarea name="description" id="description" class="form-control" rows="5" placeholder="A short description of yourself/child..."></textarea>\\r\\n                    <span class="input-group-addon"></span>\\r\\n                </div>\\r\\n            </div>\\r\\n            <input type="submit" name="submit" id="submit" value="Save" class="btn btn-primary pull-right" id="updateSettings">\\r\\n        </form>\\r\\n    </div>  \\r\\n</div>\\r\\n<script src="\', escape=False)\nresponse.write(URL(\'static/js\',\'settings.js\'))\nresponse.write(\'"></script>\\r\\n<script src="\', escape=False)\nresponse.write(URL(\'static/js\',\'bootstrap-tagsinput.min.js\'))\nresponse.write(\'"></script>\\r\\n\', escape=False)\nresponse.write(\'\\r\\n    </div>\\r\\n\', escape=False)\nresponse.write(\'\\r\\n    <!-- The javascript =============================================\\r\\n    (Placed at the end of the document so the pages load faster) -->\\r\\n    <script src="\', escape=False)\nresponse.write(URL(\'static/js\',\'jquery-1.11.0.min.js\'))\nresponse.write(\'"></script>\\r\\n    <script src="\', escape=False)\nresponse.write(URL(\'static/js\',\'bootstrap.min.js\'))\nresponse.write(\'"></script>\\r\\n    <script src="\', escape=False)\nresponse.write(URL(\'static/js\',\'formTest.js\'))\nresponse.write(\'"></script>\\r\\n    <script src="\', escape=False)\nresponse.write(URL(\'static/js\',\'sanitise.js\'))\nresponse.write(\'"></script>\\r\\n    <script src="\', escape=False)\nresponse.write(URL(\'static/js\',\'search.js\'))\nresponse.write(\'"></script>\\r\\n    <script src="\', escape=False)\nresponse.write(URL(\'static/js\',\'userReg.js\'))\nresponse.write(\'"></script>\\r\\n</body>\\r\\n</html>\\r\\n\', escape=False)'
p7
sS'snapshot'
p8
(dp9
S'exception'
p10
(dp11
S'__hash__'
p12
S"<method-wrapper '__hash__' of exceptions.NameError object>"
p13
sS'__setattr__'
p14
S"<method-wrapper '__setattr__' of exceptions.NameError object>"
p15
sS'__reduce_ex__'
p16
S'<built-in method __reduce_ex__ of exceptions.NameError object>'
p17
sS'__getslice__'
p18
S"<method-wrapper '__getslice__' of exceptions.NameError object>"
p19
sS'__getitem__'
p20
S"<method-wrapper '__getitem__' of exceptions.NameError object>"
p21
sS'__setstate__'
p22
S'<built-in method __setstate__ of exceptions.NameError object>'
p23
sS'__reduce__'
p24
S'<built-in method __reduce__ of exceptions.NameError object>'
p25
sS'__str__'
p26
S"<method-wrapper '__str__' of exceptions.NameError object>"
p27
sS'__format__'
p28
S'<built-in method __format__ of exceptions.NameError object>'
p29
sS'__getattribute__'
p30
S"<method-wrapper '__getattribute__' of exceptions.NameError object>"
p31
sS'__class__'
p32
S"<type 'exceptions.NameError'>"
p33
sS'__unicode__'
p34
S'<built-in method __unicode__ of exceptions.NameError object>'
p35
sS'__delattr__'
p36
S"<method-wrapper '__delattr__' of exceptions.NameError object>"
p37
sS'__subclasshook__'
p38
S'<built-in method __subclasshook__ of type object>'
p39
sS'__repr__'
p40
S"<method-wrapper '__repr__' of exceptions.NameError object>"
p41
sS'args'
p42
S'("name \'interests\' is not defined",)'
p43
sS'__dict__'
p44
S'{}'
p45
sS'__sizeof__'
p46
S'<built-in method __sizeof__ of exceptions.NameError object>'
p47
sS'__doc__'
p48
S"'Name not found globally.'"
p49
sS'__init__'
p50
S"<method-wrapper '__init__' of exceptions.NameError object>"
p51
sS'__new__'
p52
S'<built-in method __new__ of type object>'
p53
ssS'evalue'
p54
S"name 'interests' is not defined"
p55
sS'request'
p56
cgluon.html
XML_unpickle
p57
(S's\xba_\x00\x00<div><table><tr><td style="font-weight:bold;vertical-align:top;">ajax</td><td style="vertical-align:top;">:</td><td><div>False</div></td></tr><tr><td style="font-weight:bold;vertical-align:top;">application</td><td style="vertical-align:top;">:</td><td><div>CareSeek</div></td></tr><tr><td style="font-weight:bold;vertical-align:top;">args</td><td style="vertical-align:top;">:</td><td><div><table></table></div></td></tr><tr><td style="font-weight:bold;vertical-align:top;">cid</td><td style="vertical-align:top;">:</td><td><div>None</div></td></tr><tr><td style="font-weight:bold;vertical-align:top;">client</td><td style="vertical-align:top;">:</td><td><div>127.0.0.1</div></td></tr><tr><td style="font-weight:bold;vertical-align:top;">controller</td><td style="vertical-align:top;">:</td><td><div>default</div></td></tr><tr><td style="font-weight:bold;vertical-align:top;">cookies</td><td style="vertical-align:top;">:</td><td><div><table><tr><td style="font-weight:bold;vertical-align:top;">session_id_admin</td><td style="vertical-align:top;">:</td><td><div>127.0.0.1-dcb8003f-e2b5-488e-8d96-758a93f16461<table><tr><td style="font-weight:bold;vertical-align:top;">comment</td><td style="vertical-align:top;">:</td><td><div></div></td></tr><tr><td style="font-weight:bold;vertical-align:top;">domain</td><td style="vertical-align:top;">:</td><td><div></div></td></tr><tr><td style="font-weight:bold;vertical-align:top;">expires</td><td style="vertical-align:top;">:</td><td><div></div></td></tr><tr><td style="font-weight:bold;vertical-align:top;">httponly</td><td style="vertical-align:top;">:</td><td><div></div></td></tr><tr><td style="font-weight:bold;vertical-align:top;">max-age</td><td style="vertical-align:top;">:</td><td><div></div></td></tr><tr><td style="font-weight:bold;vertical-align:top;">path</td><td style="vertical-align:top;">:</td><td><div></div></td></tr><tr><td style="font-weight:bold;vertical-align:top;">secure</td><td style="vertical-align:top;">:</td><td><div></div></td></tr><tr><td style="font-weight:bold;vertical-align:top;">version</td><td style="vertical-align:top;">:</td><td><div></div></td></tr></table></div></td></tr><tr><td style="font-weight:bold;vertical-align:top;">session_id_careseek</td><td style="vertical-align:top;">:</td><td><div>127.0.0.1-b387819b-a4c0-481b-8dbc-154e3944fa40<table><tr><td style="font-weight:bold;vertical-align:top;">comment</td><td style="vertical-align:top;">:</td><td><div></div></td></tr><tr><td style="font-weight:bold;vertical-align:top;">domain</td><td style="vertical-align:top;">:</td><td><div></div></td></tr><tr><td style="font-weight:bold;vertical-align:top;">expires</td><td style="vertical-align:top;">:</td><td><div></div></td></tr><tr><td style="font-weight:bold;vertical-align:top;">httponly</td><td style="vertical-align:top;">:</td><td><div></div></td></tr><tr><td style="font-weight:bold;vertical-align:top;">max-age</td><td style="vertical-align:top;">:</td><td><div></div></td></tr><tr><td style="font-weight:bold;vertical-align:top;">path</td><td style="vertical-align:top;">:</td><td><div></div></td></tr><tr><td style="font-weight:bold;vertical-align:top;">secure</td><td style="vertical-align:top;">:</td><td><div></div></td></tr><tr><td style="font-weight:bold;vertical-align:top;">version</td><td style="vertical-align:top;">:</td><td><div></div></td></tr></table></div></td></tr><tr><td style="font-weight:bold;vertical-align:top;">session_id_welcome</td><td style="vertical-align:top;">:</td><td><div>127.0.0.1-9750ec36-6a78-4017-acb6-fba72eb61b33<table><tr><td style="font-weight:bold;vertical-align:top;">comment</td><td style="vertical-align:top;">:</td><td><div></div></td></tr><tr><td style="font-weight:bold;vertical-align:top;">domain</td><td style="vertical-align:top;">:</td><td><div></div></td></tr><tr><td style="font-weight:bold;vertical-align:top;">expires</td><td style="vertical-align:top;">:</td><td><div></div></td></tr><tr><td style="font-weight:bold;vertical-align:top;">httponly</td><td style="vertical-align:top;">:</td><td><div></div></td></tr><tr><td style="font-weight:bold;vertical-align:top;">max-age</td><td style="vertical-align:top;">:</td><td><div></div></td></tr><tr><td style="font-weight:bold;vertical-align:top;">path</td><td style="vertical-align:top;">:</td><td><div></div></td></tr><tr><td style="font-weight:bold;vertical-align:top;">secure</td><td style="vertical-align:top;">:</td><td><div></div></td></tr><tr><td style="font-weight:bold;vertical-align:top;">version</td><td style="vertical-align:top;">:</td><td><div></div></td></tr></table></div></td></tr></table></div></td></tr><tr><td style="font-weight:bold;vertical-align:top;">env</td><td style="vertical-align:top;">:</td><td><div><table><tr><td style="font-weight:bold;vertical-align:top;">HTTP_ACCEPT</td><td style="vertical-align:top;">:</td><td><div>text/html,application/xhtml+xml,application/xml;q=0.9,image/webp,*/*;q=0.8</div></td></tr><tr><td style="font-weight:bold;vertical-align:top;">HTTP_ACCEPT_ENCODING</td><td style="vertical-align:top;">:</td><td><div>gzip,deflate,sdch</div></td></tr><tr><td style="font-weight:bold;vertical-align:top;">HTTP_ACCEPT_LANGUAGE</td><td style="vertical-align:top;">:</td><td><div>en-US,en;q=0.8</div></td></tr><tr><td style="font-weight:bold;vertical-align:top;">HTTP_CACHE_CONTROL</td><td style="vertical-align:top;">:</td><td><div>max-age=0</div></td></tr><tr><td style="font-weight:bold;vertical-align:top;">HTTP_CONNECTION</td><td style="vertical-align:top;">:</td><td><div>keep-alive</div></td></tr><tr><td style="font-weight:bold;vertical-align:top;">HTTP_COOKIE</td><td style="vertical-align:top;">:</td><td><div>session_id_welcome=127.0.0.1-9750ec36-6a78-4017-acb6-fba72eb61b33; session_id_careseek=127.0.0.1-b387819b-a4c0-481b-8dbc-154e3944fa40; session_id_admin=127.0.0.1-dcb8003f-e2b5-488e-8d96-758a93f16461</div></td></tr><tr><td style="font-weight:bold;vertical-align:top;">HTTP_DNT</td><td style="vertical-align:top;">:</td><td><div>1</div></td></tr><tr><td style="font-weight:bold;vertical-align:top;">HTTP_HOST</td><td style="vertical-align:top;">:</td><td><div>127.0.0.1:8000</div></td></tr><tr><td style="font-weight:bold;vertical-align:top;">HTTP_REFERER</td><td style="vertical-align:top;">:</td><td><div>http://127.0.0.1:8000/admin/default/edit/CareSeek/views/default/settings.html?id=viewsdefault%2Fsettings__html</div></td></tr><tr><td style="font-weight:bold;vertical-align:top;">HTTP_USER_AGENT</td><td style="vertical-align:top;">:</td><td><div>Mozilla/5.0 (Windows NT 6.1; WOW64) AppleWebKit/537.36 (KHTML, like Gecko) Chrome/35.0.1916.114 Safari/537.36</div></td></tr><tr><td style="font-weight:bold;vertical-align:top;">PATH_INFO</td><td style="vertical-align:top;">:</td><td><div>/CareSeek/default/settings</div></td></tr><tr><td style="font-weight:bold;vertical-align:top;">QUERY_STRING</td><td style="vertical-align:top;">:</td><td><div></div></td></tr><tr><td style="font-weight:bold;vertical-align:top;">REMOTE_ADDR</td><td style="vertical-align:top;">:</td><td><div>127.0.0.1</div></td></tr><tr><td style="font-weight:bold;vertical-align:top;">REMOTE_PORT</td><td style="vertical-align:top;">:</td><td><div>52310</div></td></tr><tr><td style="font-weight:bold;vertical-align:top;">REQUEST_METHOD</td><td style="vertical-align:top;">:</td><td><div>GET</div></td></tr><tr><td style="font-weight:bold;vertical-align:top;">SCRIPT_NAME</td><td style="vertical-align:top;">:</td><td><div></div></td></tr><tr><td style="font-weight:bold;vertical-align:top;">SERVER_NAME</td><td style="vertical-align:top;">:</td><td><div>Z01A-Lancelot</div></td></tr><tr><td style="font-weight:bold;vertical-align:top;">SERVER_PORT</td><td style="vertical-align:top;">:</td><td><div>8000</div></td></tr><tr><td style="font-weight:bold;vertical-align:top;">SERVER_PROTOCOL</td><td style="vertical-align:top;">:</td><td><div>HTTP/1.1</div></td></tr><tr><td style="font-weight:bold;vertical-align:top;">SERVER_SOFTWARE</td><td style="vertical-align:top;">:</td><td><div>Rocket 1.2.6</div></td></tr><tr><td style="font-weight:bold;vertical-align:top;">app_folders</td><td style="vertical-align:top;">:</td><td><div>set([&#x27;C:\\\\Users\\\\Daniel\\\\Desktop\\\\web2py\\\\applications\\\\CareSeek\\\\&#x27;, &#x27;C:\\\\Users\\\\Daniel\\\\Desktop\\\\web2py\\\\applications\\\\welcome\\\\&#x27;, &#x27;C:\\\\Users\\\\Daniel\\\\Desktop\\\\web2py\\\\applications\\\\admin\\\\&#x27;])</div></td></tr><tr><td style="font-weight:bold;vertical-align:top;">applications_parent</td><td style="vertical-align:top;">:</td><td><div>C:\\Users\\Daniel\\Desktop\\web2py</div></td></tr><tr><td style="font-weight:bold;vertical-align:top;">cmd_args</td><td style="vertical-align:top;">:</td><td><div><table></table></div></td></tr><tr><td style="font-weight:bold;vertical-align:top;">cmd_options</td><td style="vertical-align:top;">:</td><td><div>&lt;Values at 0x22e9fa8: {&#x27;verbose&#x27;: False, &#x27;ip&#x27;: &#x27;127.0.0.1&#x27;, &#x27;debuglevel&#x27;: 30, &#x27;with_scheduler&#x27;: False, &#x27;ips&#x27;: [&#x27;192.168.1.188&#x27;, &#x27;2001:0:9d38:90d7:8a7:1c73:8594:679d&#x27;, &#x27;fe80::8a7:1c73:8594:679d%12&#x27;, &#x27;fe80::a1e1:cdec:e9ea:28d%11&#x27;], &#x27;shutdown_timeout&#x27;: 5, &#x27;taskbar&#x27;: False, &#x27;with_coverage&#x27;: False, &#x27;port&#x27;: 8000, &#x27;maxthreads&#x27;: None, &#x27;softcron&#x27;: False, &#x27;server_name&#x27;: &#x27;Z01A-Lancelot&#x27;, &#x27;bpython&#x27;: False, &#x27;nogui&#x27;: False, &#x27;pid_filename&#x27;: &#x27;httpserver.pid&#x27;, &#x27;extcron&#x27;: False, &#x27;runcron&#x27;: False, &#x27;run_system_tests&#x27;: False, &#x27;test&#x27;: None, &#x27;folder&#x27;: &#x27;C:\\\\Users\\\\Daniel\\\\Desktop\\\\web2py&#x27;, &#x27;config&#x27;: &#x27;&#x27;, &#x27;minthreads&#x27;: None, &#x27;shell&#x27;: None, &#x27;run&#x27;: &#x27;&#x27;, &#x27;log_filename&#x27;: &#x27;httpserver.log&#x27;, &#x27;profiler_dir&#x27;: None, &#x27;args&#x27;: [&#x27;&#x27;], &#x27;socket_timeout&#x27;: 5, &#x27;ssl_ca_certificate&#x27;: None, &#x27;scheduler&#x27;: None, &#x27;interfaces&#x27;: None, &#x27;ssl_private_key&#x27;: &#x27;&#x27;, &#x27;scheduler_groups&#x27;: None, &#x27;password&#x27;: &#x27;&lt;ask&gt;&#x27;, &#x27;request_queue_size&#x27;: 5, &#x27;ssl_certificate&#x27;: &#x27;&#x27;, &#x27;cronjob&#x27;: False, &#x27;numthreads&#x27;: None, &#x27;quiet&#x27;: False, &#x27;import_models&#x27;: False, &#x27;timeout&#x27;: 10, &#x27;plain&#x27;: False, &#x27;nobanner&#x27;: False}&gt;</div></td></tr><tr><td style="font-weight:bold;vertical-align:top;">db_sessions</td><td style="vertical-align:top;">:</td><td><div>set([])</div></td></tr><tr><td style="font-weight:bold;vertical-align:top;">debugging</td><td style="vertical-align:top;">:</td><td><div>True</div></td></tr><tr><td style="font-weight:bold;vertical-align:top;">gluon_parent</td><td style="vertical-align:top;">:</td><td><div>C:\\Users\\Daniel\\Desktop\\web2py</div></td></tr><tr><td style="font-weight:bold;vertical-align:top;">http_accept</td><td style="vertical-align:top;">:</td><td><div>text/html,application/xhtml+xml,application/xml;q=0.9,image/webp,*/*;q=0.8</div></td></tr><tr><td style="font-weight:bold;vertical-align:top;">http_accept_encoding</td><td style="vertical-align:top;">:</td><td><div>gzip,deflate,sdch</div></td></tr><tr><td style="font-weight:bold;vertical-align:top;">http_accept_language</td><td style="vertical-align:top;">:</td><td><div>en-US,en;q=0.8</div></td></tr><tr><td style="font-weight:bold;vertical-align:top;">http_cache_control</td><td style="vertical-align:top;">:</td><td><div>max-age=0</div></td></tr><tr><td style="font-weight:bold;vertical-align:top;">http_connection</td><td style="vertical-align:top;">:</td><td><div>keep-alive</div></td></tr><tr><td style="font-weight:bold;vertical-align:top;">http_cookie</td><td style="vertical-align:top;">:</td><td><div>session_id_welcome=127.0.0.1-9750ec36-6a78-4017-acb6-fba72eb61b33; session_id_careseek=127.0.0.1-b387819b-a4c0-481b-8dbc-154e3944fa40; session_id_admin=127.0.0.1-dcb8003f-e2b5-488e-8d96-758a93f16461</div></td></tr><tr><td style="font-weight:bold;vertical-align:top;">http_dnt</td><td style="vertical-align:top;">:</td><td><div>1</div></td></tr><tr><td style="font-weight:bold;vertical-align:top;">http_host</td><td style="vertical-align:top;">:</td><td><div>127.0.0.1:8000</div></td></tr><tr><td style="font-weight:bold;vertical-align:top;">http_referer</td><td style="vertical-align:top;">:</td><td><div>http://127.0.0.1:8000/admin/default/edit/CareSeek/views/default/settings.html?id=viewsdefault%2Fsettings__html</div></td></tr><tr><td style="font-weight:bold;vertical-align:top;">http_user_agent</td><td style="vertical-align:top;">:</td><td><div>Mozilla/5.0 (Windows NT 6.1; WOW64) AppleWebKit/537.36 (KHTML, like Gecko) Chrome/35.0.1916.114 Safari/537.36</div></td></tr><tr><td style="font-weight:bold;vertical-align:top;">is_jython</td><td style="vertical-align:top;">:</td><td><div>False</div></td></tr><tr><td style="font-weight:bold;vertical-align:top;">is_pypy</td><td style="vertical-align:top;">:</td><td><div>False</div></td></tr><tr><td style="font-weight:bold;vertical-align:top;">is_source</td><td style="vertical-align:top;">:</td><td><div>False</div></td></tr><tr><td style="font-weight:bold;vertical-align:top;">local_hosts</td><td style="vertical-align:top;">:</td><td><div><table><tr><td><div>2001:0:9d38:90d7:8a7:1c73:8594:679d</div></td></tr><tr><td><div>fe80::a1e1:cdec:e9ea:28d%11</div></td></tr><tr><td><div>::ffff:127.0.0.1</div></td></tr><tr><td><div>::1</div></td></tr><tr><td><div>fe80::8a7:1c73:8594:679d%12</div></td></tr><tr><td><div>127.0.0.1</div></td></tr><tr><td><div>192.168.1.188</div></td></tr><tr><td><div>Z01A-Lancelot</div></td></tr></table></div></td></tr><tr><td style="font-weight:bold;vertical-align:top;">path_info</td><td style="vertical-align:top;">:</td><td><div>/CareSeek/default/settings</div></td></tr><tr><td style="font-weight:bold;vertical-align:top;">query_string</td><td style="vertical-align:top;">:</td><td><div></div></td></tr><tr><td style="font-weight:bold;vertical-align:top;">remote_addr</td><td style="vertical-align:top;">:</td><td><div>127.0.0.1</div></td></tr><tr><td style="font-weight:bold;vertical-align:top;">remote_port</td><td style="vertical-align:top;">:</td><td><div>52310</div></td></tr><tr><td style="font-weight:bold;vertical-align:top;">request_method</td><td style="vertical-align:top;">:</td><td><div>GET</div></td></tr><tr><td style="font-weight:bold;vertical-align:top;">request_uri</td><td style="vertical-align:top;">:</td><td><div>/CareSeek/default/settings</div></td></tr><tr><td style="font-weight:bold;vertical-align:top;">script_name</td><td style="vertical-align:top;">:</td><td><div></div></td></tr><tr><td style="font-weight:bold;vertical-align:top;">server_name</td><td style="vertical-align:top;">:</td><td><div>Z01A-Lancelot</div></td></tr><tr><td style="font-weight:bold;vertical-align:top;">server_port</td><td style="vertical-align:top;">:</td><td><div>8000</div></td></tr><tr><td style="font-weight:bold;vertical-align:top;">server_protocol</td><td style="vertical-align:top;">:</td><td><div>HTTP/1.1</div></td></tr><tr><td style="font-weight:bold;vertical-align:top;">server_software</td><td style="vertical-align:top;">:</td><td><div>Rocket 1.2.6</div></td></tr><tr><td style="font-weight:bold;vertical-align:top;">web2py_path</td><td style="vertical-align:top;">:</td><td><div>C:\\Users\\Daniel\\Desktop\\web2py</div></td></tr><tr><td style="font-weight:bold;vertical-align:top;">web2py_version</td><td style="vertical-align:top;">:</td><td><div>2.9.5-stable+timestamp.2014.03.20.22.57.13</div></td></tr><tr><td style="font-weight:bold;vertical-align:top;">wsgi.errors</td><td style="vertical-align:top;">:</td><td><div>&lt;open file &#x27;&lt;stderr&gt;&#x27;, mode &#x27;w&#x27; at 0x01CE60D0&gt;</div></td></tr><tr><td style="font-weight:bold;vertical-align:top;">wsgi.file_wrapper</td><td style="vertical-align:top;">:</td><td><div>&lt;class wsgiref.util.FileWrapper at 0x022B1148&gt;</div></td></tr><tr><td style="font-weight:bold;vertical-align:top;">wsgi.input</td><td style="vertical-align:top;">:</td><td><div>&lt;socket._fileobject object at 0x07EE6C70&gt;</div></td></tr><tr><td style="font-weight:bold;vertical-align:top;">wsgi.multiprocess</td><td style="vertical-align:top;">:</td><td><div>False</div></td></tr><tr><td style="font-weight:bold;vertical-align:top;">wsgi.multithread</td><td style="vertical-align:top;">:</td><td><div>True</div></td></tr><tr><td style="font-weight:bold;vertical-align:top;">wsgi.run_once</td><td style="vertical-align:top;">:</td><td><div>False</div></td></tr><tr><td style="font-weight:bold;vertical-align:top;">wsgi.url_scheme</td><td style="vertical-align:top;">:</td><td><div>http</div></td></tr><tr><td style="font-weight:bold;vertical-align:top;">wsgi.version</td><td style="vertical-align:top;">:</td><td><div><table><tr><td><div>1</div></td></tr><tr><td><div>0</div></td></tr></table></div></td></tr><tr><td style="font-weight:bold;vertical-align:top;">wsgi_errors</td><td style="vertical-align:top;">:</td><td><div>&lt;open file &#x27;&lt;stderr&gt;&#x27;, mode &#x27;w&#x27; at 0x01CE60D0&gt;</div></td></tr><tr><td style="font-weight:bold;vertical-align:top;">wsgi_file_wrapper</td><td style="vertical-align:top;">:</td><td><div>&lt;class wsgiref.util.FileWrapper at 0x022B1148&gt;</div></td></tr><tr><td style="font-weight:bold;vertical-align:top;">wsgi_input</td><td style="vertical-align:top;">:</td><td><div>&lt;socket._fileobject object at 0x07EE6C70&gt;</div></td></tr><tr><td style="font-weight:bold;vertical-align:top;">wsgi_multiprocess</td><td style="vertical-align:top;">:</td><td><div>False</div></td></tr><tr><td style="font-weight:bold;vertical-align:top;">wsgi_multithread</td><td style="vertical-align:top;">:</td><td><div>True</div></td></tr><tr><td style="font-weight:bold;vertical-align:top;">wsgi_run_once</td><td style="vertical-align:top;">:</td><td><div>False</div></td></tr><tr><td style="font-weight:bold;vertical-align:top;">wsgi_url_scheme</td><td style="vertical-align:top;">:</td><td><div>http</div></td></tr><tr><td style="font-weight:bold;vertical-align:top;">wsgi_version</td><td style="vertical-align:top;">:</td><td><div><table><tr><td><div>1</div></td></tr><tr><td><div>0</div></td></tr></table></div></td></tr></table></div></td></tr><tr><td style="font-weight:bold;vertical-align:top;">extension</td><td style="vertical-align:top;">:</td><td><div>html</div></td></tr><tr><td style="font-weight:bold;vertical-align:top;">folder</td><td style="vertical-align:top;">:</td><td><div>C:\\Users\\Daniel\\Desktop\\web2py\\applications\\CareSeek\\</div></td></tr><tr><td style="font-weight:bold;vertical-align:top;">function</td><td style="vertical-align:top;">:</td><td><div>settings</div></td></tr><tr><td style="font-weight:bold;vertical-align:top;">global_settings</td><td style="vertical-align:top;">:</td><td><div><table><tr><td style="font-weight:bold;vertical-align:top;">app_folders</td><td style="vertical-align:top;">:</td><td><div>set([&#x27;C:\\\\Users\\\\Daniel\\\\Desktop\\\\web2py\\\\applications\\\\CareSeek\\\\&#x27;, &#x27;C:\\\\Users\\\\Daniel\\\\Desktop\\\\web2py\\\\applications\\\\welcome\\\\&#x27;, &#x27;C:\\\\Users\\\\Daniel\\\\Desktop\\\\web2py\\\\applications\\\\admin\\\\&#x27;])</div></td></tr><tr><td style="font-weight:bold;vertical-align:top;">applications_parent</td><td style="vertical-align:top;">:</td><td><div>C:\\Users\\Daniel\\Desktop\\web2py</div></td></tr><tr><td style="font-weight:bold;vertical-align:top;">cmd_args</td><td style="vertical-align:top;">:</td><td><div><table></table></div></td></tr><tr><td style="font-weight:bold;vertical-align:top;">cmd_options</td><td style="vertical-align:top;">:</td><td><div>&lt;Values at 0x22e9fa8: {&#x27;verbose&#x27;: False, &#x27;ip&#x27;: &#x27;127.0.0.1&#x27;, &#x27;debuglevel&#x27;: 30, &#x27;with_scheduler&#x27;: False, &#x27;ips&#x27;: [&#x27;192.168.1.188&#x27;, &#x27;2001:0:9d38:90d7:8a7:1c73:8594:679d&#x27;, &#x27;fe80::8a7:1c73:8594:679d%12&#x27;, &#x27;fe80::a1e1:cdec:e9ea:28d%11&#x27;], &#x27;shutdown_timeout&#x27;: 5, &#x27;taskbar&#x27;: False, &#x27;with_coverage&#x27;: False, &#x27;port&#x27;: 8000, &#x27;maxthreads&#x27;: None, &#x27;softcron&#x27;: False, &#x27;server_name&#x27;: &#x27;Z01A-Lancelot&#x27;, &#x27;bpython&#x27;: False, &#x27;nogui&#x27;: False, &#x27;pid_filename&#x27;: &#x27;httpserver.pid&#x27;, &#x27;extcron&#x27;: False, &#x27;runcron&#x27;: False, &#x27;run_system_tests&#x27;: False, &#x27;test&#x27;: None, &#x27;folder&#x27;: &#x27;C:\\\\Users\\\\Daniel\\\\Desktop\\\\web2py&#x27;, &#x27;config&#x27;: &#x27;&#x27;, &#x27;minthreads&#x27;: None, &#x27;shell&#x27;: None, &#x27;run&#x27;: &#x27;&#x27;, &#x27;log_filename&#x27;: &#x27;httpserver.log&#x27;, &#x27;profiler_dir&#x27;: None, &#x27;args&#x27;: [&#x27;&#x27;], &#x27;socket_timeout&#x27;: 5, &#x27;ssl_ca_certificate&#x27;: None, &#x27;scheduler&#x27;: None, &#x27;interfaces&#x27;: None, &#x27;ssl_private_key&#x27;: &#x27;&#x27;, &#x27;scheduler_groups&#x27;: None, &#x27;password&#x27;: &#x27;&lt;ask&gt;&#x27;, &#x27;request_queue_size&#x27;: 5, &#x27;ssl_certificate&#x27;: &#x27;&#x27;, &#x27;cronjob&#x27;: False, &#x27;numthreads&#x27;: None, &#x27;quiet&#x27;: False, &#x27;import_models&#x27;: False, &#x27;timeout&#x27;: 10, &#x27;plain&#x27;: False, &#x27;nobanner&#x27;: False}&gt;</div></td></tr><tr><td style="font-weight:bold;vertical-align:top;">db_sessions</td><td style="vertical-align:top;">:</td><td><div>set([])</div></td></tr><tr><td style="font-weight:bold;vertical-align:top;">debugging</td><td style="vertical-align:top;">:</td><td><div>True</div></td></tr><tr><td style="font-weight:bold;vertical-align:top;">gluon_parent</td><td style="vertical-align:top;">:</td><td><div>C:\\Users\\Daniel\\Desktop\\web2py</div></td></tr><tr><td style="font-weight:bold;vertical-align:top;">is_jython</td><td style="vertical-align:top;">:</td><td><div>False</div></td></tr><tr><td style="font-weight:bold;vertical-align:top;">is_pypy</td><td style="vertical-align:top;">:</td><td><div>False</div></td></tr><tr><td style="font-weight:bold;vertical-align:top;">is_source</td><td style="vertical-align:top;">:</td><td><div>False</div></td></tr><tr><td style="font-weight:bold;vertical-align:top;">local_hosts</td><td style="vertical-align:top;">:</td><td><div><table><tr><td><div>2001:0:9d38:90d7:8a7:1c73:8594:679d</div></td></tr><tr><td><div>fe80::a1e1:cdec:e9ea:28d%11</div></td></tr><tr><td><div>::ffff:127.0.0.1</div></td></tr><tr><td><div>::1</div></td></tr><tr><td><div>fe80::8a7:1c73:8594:679d%12</div></td></tr><tr><td><div>127.0.0.1</div></td></tr><tr><td><div>192.168.1.188</div></td></tr><tr><td><div>Z01A-Lancelot</div></td></tr></table></div></td></tr><tr><td style="font-weight:bold;vertical-align:top;">web2py_version</td><td style="vertical-align:top;">:</td><td><div>2.9.5-stable+timestamp.2014.03.20.22.57.13</div></td></tr></table></div></td></tr><tr><td style="font-weight:bold;vertical-align:top;">is_https</td><td style="vertical-align:top;">:</td><td><div>False</div></td></tr><tr><td style="font-weight:bold;vertical-align:top;">is_local</td><td style="vertical-align:top;">:</td><td><div>True</div></td></tr><tr><td style="font-weight:bold;vertical-align:top;">is_restful</td><td style="vertical-align:top;">:</td><td><div>False</div></td></tr><tr><td style="font-weight:bold;vertical-align:top;">now</td><td style="vertical-align:top;">:</td><td><div>datetime.datetime(2014, 5, 25, 10, 7, 21, 866000)</div></td></tr><tr><td style="font-weight:bold;vertical-align:top;">raw_args</td><td style="vertical-align:top;">:</td><td><div></div></td></tr><tr><td style="font-weight:bold;vertical-align:top;">raw_extension</td><td style="vertical-align:top;">:</td><td><div>None</div></td></tr><tr><td style="font-weight:bold;vertical-align:top;">url</td><td style="vertical-align:top;">:</td><td><div>/CareSeek/default/settings</div></td></tr><tr><td style="font-weight:bold;vertical-align:top;">utcnow</td><td style="vertical-align:top;">:</td><td><div>datetime.datetime(2014, 5, 25, 0, 7, 21, 866000)</div></td></tr><tr><td style="font-weight:bold;vertical-align:top;">uuid</td><td style="vertical-align:top;">:</td><td><div>CareSeek/127.0.0.1.2014-05-25.10-07-21.b711627a-7691-4fd7-af4d-b68cad956586</div></td></tr><tr><td style="font-weight:bold;vertical-align:top;">wsgi</td><td style="vertical-align:top;">:</td><td><div>&lt;gluon.main.LazyWSGI object at 0x080D5D30&gt;</div></td></tr></table></div>'
tRp58
sS'frames'
p59
(lp60
(dp61
S'file'
p62
S'C:\\home\\mdipierro\\make_web2py\\web2py\\gluon\\restricted.py'
p63
sS'dump'
p64
(dp65
sS'lnum'
p66
I220
sS'lines'
p67
(dp68
sS'call'
p69
S'(code=r"response.write(\'<!-- saved from url=(0050)http:/...script>\\r\\n</body>\\r\\n</html>\\r\\n\', escape=False)", environment={\'A\': <class \'gluon.html.A\'>, \'ANY_OF\': <class \'gluon.validators.ANY_OF\'>, \'Auth\': <class \'gluon.tools.Auth\'>, \'B\': <class \'gluon.html.B\'>, \'BEAUTIFY\': <class \'gluon.html.BEAUTIFY\'>, \'BODY\': <class \'gluon.html.BODY\'>, \'BR\': <class \'gluon.html.BR\'>, \'BUTTON\': <class \'gluon.html.BUTTON\'>, \'CAT\': <class \'gluon.html.CAT\'>, \'CENTER\': <class \'gluon.html.CENTER\'>, ...}, layer=r\'C:\\Users\\Daniel\\Desktop\\web2py\\applications\\CareSeek\\views\\default/settings.html\')'
p70
sS'func'
p71
S'restricted'
p72
sa(dp73
g62
S'C:\\Users\\Daniel\\Desktop\\web2py\\applications\\CareSeek\\views\\default\\settings.html'
p74
sg64
(dp75
S'password'
p76
S'undefined'
p77
sS'Old'
p78
g77
sS'label'
p79
g77
ssg66
I45
sg67
(dp80
I36
S'response.write(URL("default", "help"))'
p81
sI37
S'response.write(\'\\\' id="Help">Help</a></li>\\r\\n                    <li><a  href=\\\'\', escape=False)'
p82
sI38
S'response.write(URL("default", "user/logout"))'
p83
sI39
S'response.write(\'\\\' id="logout">Logout</a></li>\\r\\n                </ul>\\r\\n            </div>\\r\\n    \', escape=False)'
p84
sI40
S"response.write('\\r\\n        </div>\\r\\n    </div>\\r\\n    ', escape=False)"
p85
sI41
S'response.write(\'\\r\\n    <div class="container-fluid">\\r\\n            \', escape=False)'
p86
sI42
S'response.write(\'\\r\\n\\r\\n<div class="container-fluid">\\r\\n    <div class="col-xs-10 col-xs-offset-1 col-sm-10 col-sm-offset-1 col-md-10 col-md-offset-1">\\r\\n        <h1 class="page-header">Settings</h1>\\r\\n        <div class="row">\\r\\n            <!-- Current Email -->\\r\\n            <label>Your Email</label>\\r\\n            <div class="row">\\r\\n                <div class="col-xs-11 col-sm-11 col-md-11"> \', escape=False)'
p87
sI43
S'response.write(LOAD("default", "loadEmail.load"))'
p88
sI44
S'response.write(\' </div>\\r\\n                <div class="col-xs-1 col-sm-1 col-md-1 ">\\r\\n                    <input type="submit" name="submit" value="Edit" class="btn btn-primary pull-right" id="editEmail">\\r\\n                </div>\\r\\n            </div>\\r\\n            <!-- Change email form -->\\r\\n                <div class="panel-body" id="editEmailBox" style="display: none">\\r\\n                    <form role=\\\'form\\\'>\\r\\n                        <div class="form-group">\\r\\n                            <label>Enter new email</label>\\r\\n                            <div class="input-group">\\r\\n                                <input type="email" class="form-control" id="emailInput" name="newEmail" placeholder="example@email.com">\\r\\n                                <span class="input-group-btn">\\r\\n                                    <input class="btn btn-primary pull-right" type="submit" name="submit" value="Save" id="saveEmail" action=\\\'\\\'></input>\\r\\n                                </span>\\r\\n                            </div>\\r\\n                        </div>\\r\\n                    </form>\\r\\n                </div>\\r\\n         </div> <!-- End of email setting -->\\r\\n\\r\\n        <div class="row">\\r\\n            <!-- Current password -->\\r\\n            <label>Your Password</label>\\r\\n            <div class="row">\\r\\n                <div class="col-xs-11 col-sm-11 col-md-11" type=\\\'password\\\'> \\xe2\\x80\\xa2\\xe2\\x80\\xa2\\xe2\\x80\\xa2\\xe2\\x80\\xa2\\xe2\\x80\\xa2\\xe2\\x80\\xa2\\xe2\\x80\\xa2\\xe2\\x80\\xa2\\xe2\\x80\\xa2\\xe2\\x80\\xa2\\xe2\\x80\\xa2\\xe2\\x80\\xa2\\xe2\\x80\\xa2 </div>\\r\\n                <div class="col-xs-1 col-sm-1 col-md-1 ">\\r\\n                    <input type="submit" name="submit" value="Edit" class="btn btn-primary pull-right" id="editPass">\\r\\n                </div>\\r\\n            </div>\\r\\n            <!-- Change Pass form -->\\r\\n            <div class="panel-body" id="editPassBox" style="display: none">\\r\\n                <form role=\\\'form\\\'>\\r\\n                   <div class="form-group">\\r\\n                        <label for="">Old password</label>\\r\\n                        <div class="input-group">\\r\\n                            <input type="password" class="form-control" id="oldPass" name="oldPass" placeholder="Enter old password">\\r\\n                            <span class="input-group-addon"></span>\\r\\n                        </div>\\r\\n                    </div>\\r\\n                    <div class="form-group">\\r\\n                        <label for="">New password</label>\\r\\n                        <div class="input-group">\\r\\n                            <input type="password" class="form-control" id="newPass" name="newPass" placeholder="Enter new password...">\\r\\n                            <span class="input-group-addon"></span>\\r\\n                        </div>\\r\\n                    </div>\\r\\n                    <div class="form-group">\\r\\n                        <label for="">Confirm new password</label>\\r\\n                        <div class="input-group">\\r\\n                            <input type="password" class="form-control" id="confNewPass" name="confNewPass" placeholder="Enter new password again...">\\r\\n                            <span class="input-group-addon"></span>\\r\\n                        </div>\\r\\n                    </div>\\r\\n                    <input class="btn btn-primary pull-right" type="submit" name="submit" value="Save" id="saveEmail" action=\\\'\\\'></input>\\r\\n                </form>\\r\\n            </div>\\r\\n         </div> <!-- End of password setting -->\\r\\n\\r\\n        <div class="row">\\r\\n            <!-- Current Interests -->\\r\\n            <label>Your Interests</label>\\r\\n            <div class="row">\\r\\n                <div class="col-xs-11 col-sm-11 col-md-11" type=\\\'password\\\'>\\r\\n\\t\\t\\t\\t\\t\', escape=False)'
p89
sI45
S'interests'
p90
sI46
S"response.write('\\r\\n                    ', escape=False)"
p91
sI47
S"response.write(LOAD('default', 'loadInterests.load', ajax=True, target='interests'))"
p92
sI48
S"response.write('\\r\\n                    ', escape=False)"
p93
sI49
S'print interests'
p94
sI50
S"response.write('\\r\\n                    ', escape=False)"
p95
sI51
S"value = ''"
p96
sI52
S"response.write('\\r\\n                    ', escape=False)"
p97
sI53
S'for item in interests:'
p98
sI54
S"    response.write('\\r\\n                        ', escape=False)"
p99
sI55
S'    value = "\'" + item + "\'" + " ,"'
p100
ssg69
S'()'
p101
sg71
S'<module>'
p102
sasS'pyver'
p103
S'Python 2.7.6: C:\\Users\\Daniel\\Desktop\\web2py\\web2py.exe (prefix: C:\\Python27)'
p104
sS'session'
p105
g57
(S's\x82\x0b\x00\x00<div><table><tr><td style="font-weight:bold;vertical-align:top;">auth</td><td style="vertical-align:top;">:</td><td><div><table><tr><td style="font-weight:bold;vertical-align:top;">expiration</td><td style="vertical-align:top;">:</td><td><div>3600</div></td></tr><tr><td style="font-weight:bold;vertical-align:top;">hmac_key</td><td style="vertical-align:top;">:</td><td><div>d9f24fbc-3807-4c9c-b8c2-68b25a67fa30</div></td></tr><tr><td style="font-weight:bold;vertical-align:top;">last_visit</td><td style="vertical-align:top;">:</td><td><div>datetime.datetime(2014, 5, 25, 10, 6, 55, 251000)</div></td></tr><tr><td style="font-weight:bold;vertical-align:top;">remember</td><td style="vertical-align:top;">:</td><td><div>False</div></td></tr><tr><td style="font-weight:bold;vertical-align:top;">user</td><td style="vertical-align:top;">:</td><td><div><table><tr><td style="font-weight:bold;vertical-align:top;">Age</td><td style="vertical-align:top;">:</td><td><div>23L</div></td></tr><tr><td style="font-weight:bold;vertical-align:top;">Gender</td><td style="vertical-align:top;">:</td><td><div>Male</div></td></tr><tr><td style="font-weight:bold;vertical-align:top;">Phone</td><td style="vertical-align:top;">:</td><td><div>98989898L</div></td></tr><tr><td style="font-weight:bold;vertical-align:top;">User_Type</td><td style="vertical-align:top;">:</td><td><div>Carer</div></td></tr><tr><td style="font-weight:bold;vertical-align:top;">email</td><td style="vertical-align:top;">:</td><td><div>danielce90@gmail.com</div></td></tr><tr><td style="font-weight:bold;vertical-align:top;">first_name</td><td style="vertical-align:top;">:</td><td><div>Daniel</div></td></tr><tr><td style="font-weight:bold;vertical-align:top;">id</td><td style="vertical-align:top;">:</td><td><div>7L</div></td></tr><tr><td style="font-weight:bold;vertical-align:top;">last_name</td><td style="vertical-align:top;">:</td><td><div>Esposito</div></td></tr><tr><td style="font-weight:bold;vertical-align:top;">registration_id</td><td style="vertical-align:top;">:</td><td><div></div></td></tr><tr><td style="font-weight:bold;vertical-align:top;">registration_key</td><td style="vertical-align:top;">:</td><td><div></div></td></tr><tr><td style="font-weight:bold;vertical-align:top;">reset_password_key</td><td style="vertical-align:top;">:</td><td><div></div></td></tr><tr><td style="font-weight:bold;vertical-align:top;">username</td><td style="vertical-align:top;">:</td><td><div>daniel</div></td></tr></table></div></td></tr><tr><td style="font-weight:bold;vertical-align:top;">user_groups</td><td style="vertical-align:top;">:</td><td><div><table><tr><td style="font-weight:bold;vertical-align:top;">7</td><td style="vertical-align:top;">:</td><td><div>user_7</div></td></tr></table></div></td></tr></table></div></td></tr><tr><td style="font-weight:bold;vertical-align:top;">flash</td><td style="vertical-align:top;">:</td><td><div>None</div></td></tr></table></div>'
tRp106
sS'etype'
p107
S"<type 'exceptions.NameError'>"
p108
sS'date'
p109
S'Sun May 25 10:07:22 2014'
p110
sS'response'
p111
g57
(S's\x133\x00\x00<div><table><tr><td style="font-weight:bold;vertical-align:top;">body</td><td style="vertical-align:top;">:</td><td><div>&lt;cStringIO.StringO object at 0x07EC5D20&gt;</div></td></tr><tr><td style="font-weight:bold;vertical-align:top;">cookies</td><td style="vertical-align:top;">:</td><td><div><table><tr><td style="font-weight:bold;vertical-align:top;">session_id_careseek</td><td style="vertical-align:top;">:</td><td><div>127.0.0.1-b387819b-a4c0-481b-8dbc-154e3944fa40<table><tr><td style="font-weight:bold;vertical-align:top;">comment</td><td style="vertical-align:top;">:</td><td><div></div></td></tr><tr><td style="font-weight:bold;vertical-align:top;">domain</td><td style="vertical-align:top;">:</td><td><div></div></td></tr><tr><td style="font-weight:bold;vertical-align:top;">expires</td><td style="vertical-align:top;">:</td><td><div></div></td></tr><tr><td style="font-weight:bold;vertical-align:top;">httponly</td><td style="vertical-align:top;">:</td><td><div></div></td></tr><tr><td style="font-weight:bold;vertical-align:top;">max-age</td><td style="vertical-align:top;">:</td><td><div></div></td></tr><tr><td style="font-weight:bold;vertical-align:top;">path</td><td style="vertical-align:top;">:</td><td><div>/</div></td></tr><tr><td style="font-weight:bold;vertical-align:top;">secure</td><td style="vertical-align:top;">:</td><td><div></div></td></tr><tr><td style="font-weight:bold;vertical-align:top;">version</td><td style="vertical-align:top;">:</td><td><div></div></td></tr></table></div></td></tr></table></div></td></tr><tr><td style="font-weight:bold;vertical-align:top;">delimiters</td><td style="vertical-align:top;">:</td><td><div><table><tr><td><div>{{</div></td></tr><tr><td><div>}}</div></td></tr></table></div></td></tr><tr><td style="font-weight:bold;vertical-align:top;">files</td><td style="vertical-align:top;">:</td><td><div><table><tr><td><div>/CareSeek/static/js/jquery.js</div></td></tr><tr><td><div>/CareSeek/static/css/calendar.css</div></td></tr><tr><td><div>/CareSeek/static/js/calendar.js</div></td></tr><tr><td><div>/CareSeek/static/js/web2py.js</div></td></tr><tr><td><div>/CareSeek/static/bootstrap.min.css</div></td></tr><tr><td><div>/CareSeek/static/css/bootstrap-tagsinput.css</div></td></tr></table></div></td></tr><tr><td style="font-weight:bold;vertical-align:top;">flash</td><td style="vertical-align:top;">:</td><td><div></div></td></tr><tr><td style="font-weight:bold;vertical-align:top;">generic_patterns</td><td style="vertical-align:top;">:</td><td><div><table><tr><td><div>*</div></td></tr></table></div></td></tr><tr><td style="font-weight:bold;vertical-align:top;">google_analytics_id</td><td style="vertical-align:top;">:</td><td><div>None</div></td></tr><tr><td style="font-weight:bold;vertical-align:top;">headers</td><td style="vertical-align:top;">:</td><td><div><table><tr><td style="font-weight:bold;vertical-align:top;">X-Powered-By</td><td style="vertical-align:top;">:</td><td><div>web2py</div></td></tr></table></div></td></tr><tr><td style="font-weight:bold;vertical-align:top;">logo</td><td style="vertical-align:top;">:</td><td><div><a class="brand" href="http://www.web2py.com/"><b>web<span>2</span>py</b>&trade;&nbsp;</a></div></td></tr><tr><td style="font-weight:bold;vertical-align:top;">menu</td><td style="vertical-align:top;">:</td><td><div><table><tr><td><div><table><tr><td><div>Home</div></td></tr><tr><td><div>False</div></td></tr><tr><td><div>/CareSeek/default/index</div></td></tr><tr><td><div><table></table></div></td></tr></table></div></td></tr><tr><td><div><table><tr><td><div><span class="highlighted">web2py</span></div></td></tr><tr><td><div>False</div></td></tr><tr><td><div>http://web2py.com</div></td></tr><tr><td><div><table><tr><td><div><table><tr><td><div>My Sites</div></td></tr><tr><td><div>False</div></td></tr><tr><td><div>/admin/default/site</div></td></tr></table></div></td></tr><tr><td><div><table><tr><td><div>This App</div></td></tr><tr><td><div>False</div></td></tr><tr><td><div>/admin/default/design/CareSeek</div></td></tr><tr><td><div>[(&lt;lazyT &#x27;Controller&#x27;&gt;, False, &#x27;/admin/default/edit/CareSeek/controllers/default.py&#x27;), (&lt;lazyT &#x27;View&#x27;&gt;, False, &#x27;/admin/default/edit/CareSeek/views/default/settings.html&#x27;), (&lt;lazyT &#x27;Layout&#x27;&gt;, False, &#x27;/admin/default/edit/CareSeek/views/layout.html&#x27;), (&lt;lazyT &#x27;Stylesheet&#x27;&gt;, False, &#x27;/admin/default/edit/CareSeek/static/css/web2py.css&#x27;), (&lt;lazyT &#x27;DB Model&#x27;&gt;, False, &#x27;/admin/default/edit/CareSeek/models/db.py&#x27;), (&lt;lazyT &#x27;Menu Model&#x27;&gt;, False, &#x27;/admin/default/edit/CareSeek/models/menu.py&#x27;), (&lt;lazyT &#x27;Database&#x27;&gt;, False, &#x27;/CareSeek/appadmin/index&#x27;), (&lt;lazyT &#x27;Errors&#x27;&gt;, False, &#x27;/admin/default/errors/CareSeek&#x27;), (&lt;lazyT &#x27;About&#x27;&gt;, False, &#x27;/admin/default/about/CareSeek&#x27;)]</div></td></tr></table></div></td></tr><tr><td><div><table><tr><td><div>web2py.com</div></td></tr><tr><td><div>False</div></td></tr><tr><td><div>http://www.web2py.com</div></td></tr><tr><td><div>[(&lt;lazyT &#x27;Download&#x27;&gt;, False, &#x27;http://www.web2py.com/examples/default/download&#x27;), (&lt;lazyT &#x27;Support&#x27;&gt;, False, &#x27;http://www.web2py.com/examples/default/support&#x27;), (&lt;lazyT &#x27;Demo&#x27;&gt;, False, &#x27;http://web2py.com/demo_admin&#x27;), (&lt;lazyT &#x27;Quick Examples&#x27;&gt;, False, &#x27;http://web2py.com/examples/default/examples&#x27;), (&lt;lazyT &#x27;FAQ&#x27;&gt;, False, &#x27;http://web2py.com/AlterEgo&#x27;), (&lt;lazyT &#x27;Videos&#x27;&gt;, False, &#x27;http://www.web2py.com/examples/default/videos/&#x27;), (&lt;lazyT &#x27;Free Applications&#x27;&gt;, False, &#x27;http://web2py.com/appliances&#x27;), (&lt;lazyT &#x27;Plugins&#x27;&gt;, False, &#x27;http://web2py.com/plugins&#x27;), (&lt;lazyT &#x27;Layouts&#x27;&gt;, False, &#x27;http://web2py.com/layouts&#x27;), (&lt;lazyT &#x27;Recipes&#x27;&gt;, False, &#x27;http://web2pyslices.com/&#x27;), (&lt;lazyT &#x27;Semantic&#x27;&gt;, False, &#x27;http://web2py.com/semantic&#x27;)]</div></td></tr></table></div></td></tr><tr><td><div><table><tr><td><div>Documentation</div></td></tr><tr><td><div>False</div></td></tr><tr><td><div>http://www.web2py.com/book</div></td></tr><tr><td><div>[(&lt;lazyT &#x27;Preface&#x27;&gt;, False, &#x27;http://www.web2py.com/book/default/chapter/00&#x27;), (&lt;lazyT &#x27;Introduction&#x27;&gt;, False, &#x27;http://www.web2py.com/book/default/chapter/01&#x27;), (&lt;lazyT &#x27;Python&#x27;&gt;, False, &#x27;http://www.web2py.com/book/default/chapter/02&#x27;), (&lt;lazyT &#x27;Overview&#x27;&gt;, False, &#x27;http://www.web2py.com/book/default/chapter/03&#x27;), (&lt;lazyT &#x27;The Core&#x27;&gt;, False, &#x27;http://www.web2py.com/book/default/chapter/04&#x27;), (&lt;lazyT &#x27;The Views&#x27;&gt;, False, &#x27;http://www.web2py.com/book/default/chapter/05&#x27;), (&lt;lazyT &#x27;Database&#x27;&gt;, False, &#x27;http://www.web2py.com/book/default/chapter/06&#x27;), (&lt;lazyT &#x27;Forms and Validators&#x27;&gt;, False, &#x27;http://www.web2py.com/book/default/chapter/07&#x27;), (&lt;lazyT &#x27;Email and SMS&#x27;&gt;, False, &#x27;http://www.web2py.com/book/default/chapter/08&#x27;), (&lt;lazyT &#x27;Access Control&#x27;&gt;, False, &#x27;http://www.web2py.com/book/default/chapter/09&#x27;), (&lt;lazyT &#x27;Services&#x27;&gt;, False, &#x27;http://www.web2py.com/book/default/chapter/10&#x27;), (&lt;lazyT &#x27;Ajax Recipes&#x27;&gt;, False, &#x27;http://www.web2py.com/book/default/chapter/11&#x27;), (&lt;lazyT &#x27;Components and Plugins&#x27;&gt;, False, &#x27;http://www.web2py.com/book/default/chapter/12&#x27;), (&lt;lazyT &#x27;Deployment Recipes&#x27;&gt;, False, &#x27;http://www.web2py.com/book/default/chapter/13&#x27;), (&lt;lazyT &#x27;Other Recipes&#x27;&gt;, False, &#x27;http://www.web2py.com/book/default/chapter/14&#x27;), (&lt;lazyT &#x27;Buy this book&#x27;&gt;, False, &#x27;http://stores.lulu.com/web2py&#x27;)]</div></td></tr></table></div></td></tr><tr><td><div><table><tr><td><div>Community</div></td></tr><tr><td><div>False</div></td></tr><tr><td><div>None</div></td></tr><tr><td><div>[(&lt;lazyT &#x27;Groups&#x27;&gt;, False, &#x27;http://www.web2py.com/examples/default/usergroups&#x27;), (&lt;lazyT &#x27;Twitter&#x27;&gt;, False, &#x27;http://twitter.com/web2py&#x27;), (&lt;lazyT &#x27;Live Chat&#x27;&gt;, False, &#x27;http://webchat.freenode.net/?channels=web2py&#x27;)]</div></td></tr></table></div></td></tr><tr><td><div><table><tr><td><div>Plugins</div></td></tr><tr><td><div>False</div></td></tr><tr><td><div>None</div></td></tr><tr><td><div>[(&#x27;plugin_wiki&#x27;, False, &#x27;http://web2py.com/examples/default/download&#x27;), (&lt;lazyT &#x27;Other Plugins&#x27;&gt;, False, &#x27;http://web2py.com/plugins&#x27;), (&lt;lazyT &#x27;Layout Plugins&#x27;&gt;, False, &#x27;http://web2py.com/layouts&#x27;)]</div></td></tr></table></div></td></tr></table></div></td></tr></table></div></td></tr></table></div></td></tr><tr><td style="font-weight:bold;vertical-align:top;">meta</td><td style="vertical-align:top;">:</td><td><div><table><tr><td style="font-weight:bold;vertical-align:top;">author</td><td style="vertical-align:top;">:</td><td><div>Your Name &lt;you@example.com&gt;</div></td></tr><tr><td style="font-weight:bold;vertical-align:top;">generator</td><td style="vertical-align:top;">:</td><td><div>Web2py Web Framework</div></td></tr><tr><td style="font-weight:bold;vertical-align:top;">keywords</td><td style="vertical-align:top;">:</td><td><div>web2py, python, framework</div></td></tr></table></div></td></tr><tr><td style="font-weight:bold;vertical-align:top;">models_to_run</td><td style="vertical-align:top;">:</td><td><div><table><tr><td><div>^\\w+\\.py$</div></td></tr><tr><td><div>^default/\\w+\\.py$</div></td></tr><tr><td><div>^default/settings/\\w+\\.py$</div></td></tr></table></div></td></tr><tr><td style="font-weight:bold;vertical-align:top;">postprocessing</td><td style="vertical-align:top;">:</td><td><div><table></table></div></td></tr><tr><td style="font-weight:bold;vertical-align:top;">session_client</td><td style="vertical-align:top;">:</td><td><div>127.0.0.1</div></td></tr><tr><td style="font-weight:bold;vertical-align:top;">session_cookie_compression_level</td><td style="vertical-align:top;">:</td><td><div>None</div></td></tr><tr><td style="font-weight:bold;vertical-align:top;">session_cookie_expires</td><td style="vertical-align:top;">:</td><td><div>None</div></td></tr><tr><td style="font-weight:bold;vertical-align:top;">session_cookie_key</td><td style="vertical-align:top;">:</td><td><div>None</div></td></tr><tr><td style="font-weight:bold;vertical-align:top;">session_data_name</td><td style="vertical-align:top;">:</td><td><div>session_data_careseek</div></td></tr><tr><td style="font-weight:bold;vertical-align:top;">session_file</td><td style="vertical-align:top;">:</td><td><div>&lt;open file &#x27;C:\\\\Users\\\\Daniel\\\\Desktop\\\\web2py\\\\applications\\\\CareSeek\\\\sessions\\\\127.0.0.1-b387819b-a4c0-481b-8dbc-154e3944fa40&#x27;, mode &#x27;rb+&#x27; at 0x083D3650&gt;</div></td></tr><tr><td style="font-weight:bold;vertical-align:top;">session_filename</td><td style="vertical-align:top;">:</td><td><div>C:\\Users\\Daniel\\Desktop\\web2py\\applications\\CareSeek\\sessions\\127.0.0.1-b387819b-a4c0-481b-8dbc-154e3944fa40</div></td></tr><tr><td style="font-weight:bold;vertical-align:top;">session_hash</td><td style="vertical-align:top;">:</td><td><div>31fde79f9ca9b25ec30788904160b93e</div></td></tr><tr><td style="font-weight:bold;vertical-align:top;">session_id</td><td style="vertical-align:top;">:</td><td><div>127.0.0.1-b387819b-a4c0-481b-8dbc-154e3944fa40</div></td></tr><tr><td style="font-weight:bold;vertical-align:top;">session_id_name</td><td style="vertical-align:top;">:</td><td><div>session_id_careseek</div></td></tr><tr><td style="font-weight:bold;vertical-align:top;">session_locked</td><td style="vertical-align:top;">:</td><td><div>True</div></td></tr><tr><td style="font-weight:bold;vertical-align:top;">session_masterapp</td><td style="vertical-align:top;">:</td><td><div>CareSeek</div></td></tr><tr><td style="font-weight:bold;vertical-align:top;">session_new</td><td style="vertical-align:top;">:</td><td><div>False</div></td></tr><tr><td style="font-weight:bold;vertical-align:top;">session_storage_type</td><td style="vertical-align:top;">:</td><td><div>file</div></td></tr><tr><td style="font-weight:bold;vertical-align:top;">status</td><td style="vertical-align:top;">:</td><td><div>200</div></td></tr><tr><td style="font-weight:bold;vertical-align:top;">subtitle</td><td style="vertical-align:top;">:</td><td><div></div></td></tr><tr><td style="font-weight:bold;vertical-align:top;">title</td><td style="vertical-align:top;">:</td><td><div>Careseek</div></td></tr><tr><td style="font-weight:bold;vertical-align:top;">view</td><td style="vertical-align:top;">:</td><td><div>default/settings.html</div></td></tr></table></div>'
tRp112
sS'locals'
p113
(dp114
S'Service'
p115
S"<class 'gluon.tools.Service'>"
p116
sS'OBJECT'
p117
S"<class 'gluon.html.OBJECT'>"
p118
sS'SQLDB'
p119
S"<class 'gluon.dal.DAL'>"
p120
sg105
S"<Storage {'_auth_next': None, 'flash': None, 'au...0180b', '30d0b657-e3f5-4d28-bf08-e40cf8e9e1ba']}>"
p121
sS'LINK'
p122
S"<class 'gluon.html.LINK'>"
p123
sS'BR'
p124
S"<class 'gluon.html.BR'>"
p125
sS'local_import'
p126
S'<function <lambda>>'
p127
sS'OPTGROUP'
p128
S"<class 'gluon.html.OPTGROUP'>"
p129
sS'__package__'
p130
S'None'
p131
sS'PRE'
p132
S"<class 'gluon.html.PRE'>"
p133
sS'IS_INT_IN_RANGE'
p134
S"<class 'gluon.validators.IS_INT_IN_RANGE'>"
p135
sS'IS_LOWER'
p136
S"<class 'gluon.validators.IS_LOWER'>"
p137
sS'IS_STRONG'
p138
S"<class 'gluon.validators.IS_STRONG'>"
p139
sS'cache'
p140
S'<gluon.cache.Cache object>'
p141
sS'IS_IN_DB'
p142
S"<class 'gluon.validators.IS_IN_DB'>"
p143
sS'TAG'
p144
S'<gluon.html.__TAG__ object>'
p145
sS'SQLField'
p146
S"<class 'gluon.dal.Field'>"
p147
sS'mail'
p148
S'<gluon.tools.Mail object>'
p149
sS'BODY'
p150
S"<class 'gluon.html.BODY'>"
p151
sS'IS_DATE_IN_RANGE'
p152
S"<class 'gluon.validators.IS_DATE_IN_RANGE'>"
p153
sS'IFRAME'
p154
S"<class 'gluon.html.IFRAME'>"
p155
sS'URL'
p156
S'<function URL>'
p157
sS'__file__'
p158
S"r'C:\\Users\\Daniel\\Desktop\\web2py\\applications\\CareSeek\\views\\default/settings.html'"
p159
sS'db'
p160
S'<DAL uri="sqlite://storage.sqlite">'
p161
sS'auth'
p162
S'<gluon.tools.Auth object>'
p163
sS'P'
S"<class 'gluon.html.P'>"
p164
sS'TFOOT'
p165
S"<class 'gluon.html.TFOOT'>"
p166
sS'XHTML'
p167
S"<class 'gluon.html.XHTML'>"
p168
sS'ON'
p169
S'True'
p170
sS'OL'
p171
S"<class 'gluon.html.OL'>"
p172
sS'TEXTAREA'
p173
S"<class 'gluon.html.TEXTAREA'>"
p174
sS'MENU'
p175
S"<class 'gluon.html.MENU'>"
p176
sS'gender'
p177
S"[<lazyT 'Male'>, <lazyT 'Female'>]"
p178
sS'IS_IMAGE'
p179
S"<class 'gluon.validators.IS_IMAGE'>"
p180
sS'EM'
p181
S"<class 'gluon.html.EM'>"
p182
sS'CODE'
p183
S"<class 'gluon.html.CODE'>"
p184
sS'HTTP'
p185
S"<class 'gluon.http.HTTP'>"
p186
sS'HR'
p187
S"<class 'gluon.html.HR'>"
p188
sS'IS_DATETIME'
p189
S"<class 'gluon.validators.IS_DATETIME'>"
p190
sS'STYLE'
p191
S"<class 'gluon.html.STYLE'>"
p192
sS'LABEL'
p193
S"<class 'gluon.html.LABEL'>"
p194
sS'CLEANUP'
p195
S"<class 'gluon.validators.CLEANUP'>"
p196
sS'plugins'
p197
S'<gluon.tools.PluginManager object>'
p198
sS'SELECT'
p199
S"<class 'gluon.html.SELECT'>"
p200
sS'use_janrain'
p201
S'<function use_janrain>'
p202
sS'CENTER'
p203
S"<class 'gluon.html.CENTER'>"
p204
sS'prettydate'
p205
S'<function prettydate>'
p206
sS'Crud'
p207
S"<class 'gluon.tools.Crud'>"
p208
sS'Auth'
p209
S"<class 'gluon.tools.Auth'>"
p210
sS'DEVELOPMENT_MENU'
p211
g170
sS'__builtins__'
p212
S"{'ArithmeticError': <type 'exceptions.ArithmeticError'>, 'AssertionError': <type 'exceptions.AssertionError'>, 'AttributeError': <type 'exceptions.AttributeError'>, 'BaseException': <type 'exceptions.BaseException'>, 'BufferError': <type 'exceptions.BufferError'>, 'BytesWarning': <type 'exceptions.BytesWarning'>, 'DeprecationWarning': <type 'exceptions.DeprecationWarning'>, 'EOFError': <type 'exceptions.EOFError'>, 'Ellipsis': Ellipsis, 'EnvironmentError': <type 'exceptions.EnvironmentError'>, ...}"
p213
sS'HTML'
p214
S"<class 'gluon.html.HTML'>"
p215
sS'SQLFORM'
p216
S"<class 'gluon.sqlhtml.SQLFORM'>"
p217
sS'LOAD'
p218
S'<function LOAD>'
p219
sS'redirect'
p220
S'<function redirect>'
p221
sS'FIELDSET'
p222
S"<class 'gluon.html.FIELDSET'>"
p223
sS'IS_EQUAL_TO'
p224
S"<class 'gluon.validators.IS_EQUAL_TO'>"
p225
sS'embed64'
p226
S'<function embed64>'
p227
sS'IS_LIST_OF'
p228
S"<class 'gluon.validators.IS_LIST_OF'>"
p229
sS'INPUT'
p230
S"<class 'gluon.html.INPUT'>"
p231
sS'EMBED'
p232
S"<class 'gluon.html.EMBED'>"
p233
sS'_'
S'<function _>'
p234
sS'H2'
p235
S"<class 'gluon.html.H2'>"
p236
sS'H3'
p237
S"<class 'gluon.html.H3'>"
p238
sS'BUTTON'
p239
S"<class 'gluon.html.BUTTON'>"
p240
sS'H1'
p241
S"<class 'gluon.html.H1'>"
p242
sS'H6'
p243
S"<class 'gluon.html.H6'>"
p244
sS'H4'
p245
S"<class 'gluon.html.H4'>"
p246
sS'H5'
p247
S"<class 'gluon.html.H5'>"
p248
sS'UL'
p249
S"<class 'gluon.html.UL'>"
p250
sS'IS_UPPER'
p251
S"<class 'gluon.validators.IS_UPPER'>"
p252
sS'xmlescape'
p253
S'<function xmlescape>'
p254
sS'IS_TIME'
p255
S"<class 'gluon.validators.IS_TIME'>"
p256
sS'OPTION'
p257
S"<class 'gluon.html.OPTION'>"
p258
sS'TITLE'
p259
S"<class 'gluon.html.TITLE'>"
p260
sS'CRYPT'
p261
S"<class 'gluon.validators.CRYPT'>"
p262
sS'IS_EMPTY_OR'
p263
S"<class 'gluon.validators.IS_EMPTY_OR'>"
p264
sS'MARKMIN'
p265
S"<class 'gluon.html.MARKMIN'>"
p266
sS'__name__'
p267
S"'__restricted__'"
p268
sS'STRONG'
p269
S"<class 'gluon.html.STRONG'>"
p270
sS'COL'
p271
S"<class 'gluon.html.COL'>"
p272
sS'service'
p273
S'<gluon.tools.Service object>'
p274
sS'SCRIPT'
p275
S"<class 'gluon.html.SCRIPT'>"
p276
sS'TABLE'
p277
S"<class 'gluon.html.TABLE'>"
p278
sS'IS_IPV4'
p279
S"<class 'gluon.validators.IS_IPV4'>"
p280
sS'IS_LENGTH'
p281
S"<class 'gluon.validators.IS_LENGTH'>"
p282
sS'IS_IPV6'
p283
S"<class 'gluon.validators.IS_IPV6'>"
p284
sS'XML'
p285
S"<class 'gluon.html.XML'>"
p286
sS'B'
S"<class 'gluon.html.B'>"
p287
sS'IMG'
p288
S"<class 'gluon.html.IMG'>"
p289
sS'SQLTABLE'
p290
S"<class 'gluon.sqlhtml.SQLTABLE'>"
p291
sS'IS_MATCH'
p292
S"<class 'gluon.validators.IS_MATCH'>"
p293
sS'IS_ALPHANUMERIC'
p294
S"<class 'gluon.validators.IS_ALPHANUMERIC'>"
p295
sS'SPAN'
p296
S"<class 'gluon.html.SPAN'>"
p297
sS'IS_JSON'
p298
S"<class 'gluon.validators.IS_JSON'>"
p299
sS'IS_IPADDRESS'
p300
S"<class 'gluon.validators.IS_IPADDRESS'>"
p301
sS'IS_SLUG'
p302
S"<class 'gluon.validators.IS_SLUG'>"
p303
sS'BEAUTIFY'
p304
S"<class 'gluon.html.BEAUTIFY'>"
p305
sS'META'
p306
S"<class 'gluon.html.META'>"
p307
sS'TYPE'
p308
S"[<lazyT 'Carer'>, <lazyT 'Care Seeker'>]"
p309
sS'IS_DATE'
p310
S"<class 'gluon.validators.IS_DATE'>"
p311
sS'IS_EMAIL'
p312
S"<class 'gluon.validators.IS_EMAIL'>"
p313
sS'IS_NOT_EMPTY'
p314
S"<class 'gluon.validators.IS_NOT_EMPTY'>"
p315
sS'IS_FLOAT_IN_RANGE'
p316
S"<class 'gluon.validators.IS_FLOAT_IN_RANGE'>"
p317
sS'TBODY'
p318
S"<class 'gluon.html.TBODY'>"
p319
sS'CAT'
p320
S"<class 'gluon.html.CAT'>"
p321
sS'Field'
p322
S"<class 'gluon.dal.Field'>"
p323
sS'IS_LIST_OF_EMAILS'
p324
S"<class 'gluon.validators.IS_LIST_OF_EMAILS'>"
p325
sS'DIV'
p326
S"<class 'gluon.html.DIV'>"
p327
sS'LEGEND'
p328
S"<class 'gluon.html.LEGEND'>"
p329
sS'COLGROUP'
p330
S"<class 'gluon.html.COLGROUP'>"
p331
sS'DAL'
p332
S"<class 'gluon.dal.DAL'>"
p333
sS'TT'
p334
S"<class 'gluon.html.TT'>"
p335
sS'TR'
p336
S"<class 'gluon.html.TR'>"
p337
sS'LI'
p338
S"<class 'gluon.html.LI'>"
p339
sS'TH'
p340
S"<class 'gluon.html.TH'>"
p341
sS'TD'
p342
S"<class 'gluon.html.TD'>"
p343
sS'PluginManager'
p344
S"<class 'gluon.tools.PluginManager'>"
p345
sS'IS_URL'
p346
S"<class 'gluon.validators.IS_URL'>"
p347
sS'A'
S"<class 'gluon.html.A'>"
p348
sS'HEAD'
p349
S"<class 'gluon.html.HEAD'>"
p350
sS'IS_DATETIME_IN_RANGE'
p351
S"<class 'gluon.validators.IS_DATETIME_IN_RANGE'>"
p352
sS'FORM'
p353
S"<class 'gluon.html.FORM'>"
p354
sS'I'
S"<class 'gluon.html.I'>"
p355
sS'crud'
p356
S'<gluon.tools.Crud object>'
p357
sS'IS_NOT_IN_DB'
p358
S"<class 'gluon.validators.IS_NOT_IN_DB'>"
p359
sg111
S"<Storage {'body': <cStringIO.StringO object at 0...at 0x0841A8F0>, 'view': 'default/settings.html'}>"
p360
sS'THEAD'
p361
S"<class 'gluon.html.THEAD'>"
p362
sS'ANY_OF'
p363
S"<class 'gluon.validators.ANY_OF'>"
p364
sS'IS_NULL_OR'
p365
S"<class 'gluon.validators.IS_EMPTY_OR'>"
p366
sg56
S"<Storage {'_vars': None, 'function': 'settings',...iel\\\\Desktop\\\\web2py\\\\applications\\\\CareSeek\\\\'}>"
p367
sS'IS_EXPR'
p368
S"<class 'gluon.validators.IS_EXPR'>"
p369
sS'T'
S'<gluon.languages.translator object>'
p370
sS'IS_IN_SET'
p371
S"<class 'gluon.validators.IS_IN_SET'>"
p372
sS'IS_UPLOAD_FILENAME'
p373
S"<class 'gluon.validators.IS_UPLOAD_FILENAME'>"
p374
sS'IS_DECIMAL_IN_RANGE'
p375
S"<class 'gluon.validators.IS_DECIMAL_IN_RANGE'>"
p376
sssS'traceback'
p377
S'Traceback (most recent call last):\n  File "/home/mdipierro/make_web2py/web2py/gluon/restricted.py", line 220, in restricted\n  File "C:\\Users\\Daniel\\Desktop\\web2py\\applications\\CareSeek\\views\\default/settings.html", line 45, in <module>\n    <label for="">Old password</label>\nNameError: name \'interests\' is not defined\n'
p378
s.