(dp1
S'output'
p2
S"<type 'exceptions.SyntaxError'> invalid syntax (default/settings.html, line 63)"
p3
sS'layer'
p4
S'C:\\Users\\4524\\Documents\\web2py_win\\web2py\\applications\\CareSeek2\\views\\default/settings.html'
p5
sS'code'
p6
S'response.write(\'<!-- saved from url=(0050)http://getbootstrap.com/examples/starter-template/ -->\\r\\n<html lang="en"><head><meta http-equiv="Content-Type" content="text/html; charset=UTF-8">\\r\\n    <meta charset="utf-8">\\r\\n    <meta http-equiv="X-UA-Compatible" content="IE=edge">\\r\\n    <meta name="viewport" content="width=device-width, initial-scale=1">\\r\\n    <meta name="description" content="">\\r\\n    <meta name="author" content="">\\r\\n    <link rel="shortcut icon" href="">\\r\\n    <title>CareSeek</title>\\r\\n    \\r\\n    <!-- Bootstrap core CSS -->\\r\\n    \', escape=False)\nresponse.files.append(URL(\'static\',\'bootstrap.min.css\'))\nresponse.write(\'\\r\\n    \', escape=False)\nresponse.files.append(URL(\'static/css\',\'bootstrap-tagsinput.css\'))\nresponse.write(\'\\r\\n    \', escape=False)\nresponse.files.append(URL(\'static/css\', \'star-rating.css\'))\nresponse.write(\'\\r\\n    \', escape=False)\nresponse.write(\'<script type="text/javascript"><!--\\n    // These variables are used by the web2py_ajax_init function in web2py_ajax.js (which is loaded below).\\n    var w2p_ajax_confirm_message = "\', escape=False)\nresponse.write(T(\'Are you sure you want to delete this object?\'))\nresponse.write(\'";\\n    var w2p_ajax_disable_with_message = "\', escape=False)\nresponse.write(T(\'Working...\'))\nresponse.write(\'";\\n    var w2p_ajax_date_format = "\', escape=False)\nresponse.write(T(\'%Y-%m-%d\'))\nresponse.write(\'";\\n    var w2p_ajax_datetime_format = "\', escape=False)\nresponse.write(T(\'%Y-%m-%d %H:%M:%S\'))\nresponse.write(\'";\\n    var ajax_error_500 = \\\'\', escape=False)\nresponse.write(T.M(\'An error occured, please [[reload %s]] the page\') % URL(args=request.args, vars=request.get_vars))\nresponse.write("\'\\n    //--></script>\\n", escape=False)\nresponse.files.insert(0,URL(\'static\',\'js/jquery.js\'))\nresponse.files.insert(1,URL(\'static\',\'css/calendar.css\'))\nresponse.files.insert(2,URL(\'static\',\'js/calendar.js\'))\nresponse.files.insert(3,URL(\'static\',\'js/web2py.js\'))\nresponse.include_meta()\nresponse.include_files()\nresponse.write(\'\\n\', escape=False)\nresponse.write(\'\\r\\n    \\r\\n    <!-- Custom styles for this template -->\\r\\n    <style type="text/css">\\r\\n        .navbar-inverse .navbar-nav >li>a {\\r\\n            color: #E9D6C5;\\r\\n        }\\r\\n\\r\\n        .navbar-inverse {\\r\\n            background-color: #457;\\r\\n            border-color: #080808;\\r\\n        }\\r\\n\\r\\n        .navbar-inverse .navbar-brand {\\r\\n            color: #E9D6C5;\\r\\n        }\\r\\n\\t\\t.format {\\r\\n\\t\\t\\twhite-space: pre;\\r\\n\\t\\t\\tdisplay: block;\\r\\n\\t\\t}\\r\\n\\r\\n        .btn-primary {\\r\\n            color: #E9D6C5;\\r\\n            background-color: #333;\\r\\n            border-color: #111;\\r\\n        }\\r\\n        img {\\r\\n            width: 400px;\\r\\n            height: 400px;\\r\\n            padding: 5px;\\r\\n        }\\r\\n\\r\\n        body {\\r\\n            background-color: #F5F5F5;\\r\\n            padding: 60px;\\r\\n        }\\r\\n    </style>\\r\\n</head>\\r\\n\\r\\n<body>\\r\\n    <div class="navbar navbar-inverse navbar-fixed-top" role="navigation">\\r\\n        <div class="container">\\r\\n            <div class="navbar-header">\\r\\n                <button type="button" class="navbar-toggle" data-toggle="collapse" data-target=".navbar-collapse">\\r\\n                    <span class="sr-only">Toggle navigation</span>\\r\\n                    <span class="icon-bar"></span>\\r\\n                    <span class="icon-bar"></span>\\r\\n                    <span class="icon-bar"></span>\\r\\n                </button>\\r\\n\\t\\t\\t\\t\', escape=False)\nif auth.is_logged_in():\n    response.write(\'\\r\\n\\t\\t\\t\\t\\t<a class="navbar-brand" href="\', escape=False)\n    response.write(URL(\'default\',\'dashboard\'))\n    response.write(\'">CareSeek</a>\\r\\n\\t\\t\\t\\t\', escape=False)\nelse:\n    response.write(\'\\r\\n\\t\\t\\t\\t\\t<a class="navbar-brand" href="\', escape=False)\n    response.write(URL(\'default\',\'index\'))\n    response.write(\'">CareSeek</a>\\r\\n\\t\\t\\t\\t\', escape=False)\n    pass\nresponse.write(\'\\r\\n            </div>\\r\\n            \', escape=False)\nresponse.write(\'\\n    <div class="navbar-collapse collapse">\\n                <ul class="nav navbar-nav navbar-right">\\n\\t\\t\\t\\t\\t<li><a href=\\\'\', escape=False)\nresponse.write(URL("default", "test"))\nresponse.write(\'\\\' id="demo">Demo</a></li>\\n                    <li><a href=\\\'\', escape=False)\nresponse.write(URL("default", "mySchedule"))\nresponse.write(\'\\\' id="schedule">Schedule</a></li>\\n                    <li><a href=\\\'\', escape=False)\nresponse.write(URL("default", "myProfile", args=auth.user.id))\nresponse.write(\'\\\' id="profile">My Profile</a></li>\\n                    <li><a href=\\\'\', escape=False)\nresponse.write(URL("default", "settings"))\nresponse.write(\'\\\' id="usrSettings">Settings</a></li>\\n                    <li><a href=\\\'\', escape=False)\nresponse.write(URL("default", "help"))\nresponse.write(\'\\\' id="Help">Help</a></li>\\n                    <li><a  href=\\\'\', escape=False)\nresponse.write(URL("default", "user/logout"))\nresponse.write(\'\\\' id="logout">Logout</a></li>\\n                    <li><a href=\\\'\', escape=False)\nresponse.write(URL("default", "search"))\nresponse.write(\'\\\' id="searchPage">Search</a></li>\\n                </ul>\\n            </div>\\n    \', escape=False)\nresponse.write(\'\\r\\n        </div>\\r\\n    </div>\\r\\n    \', escape=False)\nresponse.write(\'\\n    <div class="container-fluid">\\n            \', escape=False)\nresponse.write(\'\\r\\n\\r\\n<div class="container-fluid">\\r\\n    <div class="col-xs-10 col-xs-offset-1 col-sm-10 col-sm-offset-1 col-md-10 col-md-offset-1">\\r\\n        <h1 class="page-header">Settings</h1>\\r\\n        <div class="col-xs-12 col-sm-12 col-md-12">\\r\\n            <div class="row">\\r\\n                <!-- Current Email -->\\r\\n                <label>Your Email:</label>\\r\\n                <div class="row">\\r\\n                    <div class="col-xs-11 col-sm-11 col-md-11" id="email" name="email"> \', escape=False)\nresponse.write(user.email)\nresponse.write(\' </div>\\r\\n                    <div class="col-xs-1 col-sm-1 col-md-1 ">\\r\\n                        <input type="submit" name="submit" value="Edit" class="btn btn-primary pull-right" id="editEmail">\\r\\n                    </div>\\r\\n                </div>\\r\\n                <!-- Change email form -->\\r\\n                    <div class="panel-body" id="editEmailBox" style="display: none">\\r\\n                        <form role=\\\'form\\\'>\\r\\n                            <div class="form-group">\\r\\n                                <label>Enter new email</label>\\r\\n                                <div class="input-group">\\r\\n                                    <input type="email" class="form-control" id="emailInput" name="newEmail" placeholder="example@email.com">\\r\\n                                    <span class="input-group-btn">\\r\\n                                        <input class="btn btn-primary pull-right" type="submit" name="submit" value="Save" id="saveEmail" onclick="ajax(\\\'\', escape=False)\nresponse.write(URL(\'default\', \'updateEmail\'))\nresponse.write(\'\\\',[\\\'newEmail\\\'],\\\'email\\\');"></input>\\r\\n                                    </span>\\r\\n                                </div>\\r\\n                            </div>\\r\\n                        </form>\\r\\n                    </div>\\r\\n             </div> <!-- End of email setting -->\\r\\n\\r\\n            <div class="row">\\r\\n                <!-- Current password -->\\r\\n                <label>Your Password:</label>\\r\\n                <div class="row">\\r\\n                    <div class="col-xs-11 col-sm-11 col-md-11"> \\xe2\\x80\\xa2\\xe2\\x80\\xa2\\xe2\\x80\\xa2\\xe2\\x80\\xa2\\xe2\\x80\\xa2\\xe2\\x80\\xa2\\xe2\\x80\\xa2\\xe2\\x80\\xa2\\xe2\\x80\\xa2\\xe2\\x80\\xa2\\xe2\\x80\\xa2\\xe2\\x80\\xa2\\xe2\\x80\\xa2 </div>\\r\\n                    <div class="col-xs-1 col-sm-1 col-md-1 ">\\r\\n                        <input type="submit" name="submit" value="Edit" class="btn btn-primary pull-right" id="editPass">\\r\\n                    </div>\\r\\n                </div>\\r\\n                <!-- Change Pass form -->\\r\\n                <div class="panel-body" id="editPassBox" style="display: none">\\r\\n                    <form role=\\\'form\\\'>\\r\\n                       <div class="form-group">\\r\\n                            <label for="">Old password</label>\\r\\n                            <div class="input-group">\\r\\n                                <input type="password" class="form-control" id="oldPass" name="oldPass" placeholder="Enter old password">\\r\\n                                <span class="input-group-addon"></span>\\r\\n                            </div>\\r\\n                        </div>\\r\\n                        <div class="form-group">\\r\\n                            <label for="">New password</label>\\r\\n                            <div class="input-group">\\r\\n                                <input type="password" class="form-control" id="newPass" name="newPass" placeholder="Enter new password...">\\r\\n                                <span class="input-group-addon"></span>\\r\\n                            </div>\\r\\n                        </div>\\r\\n                        <div class="form-group">\\r\\n                            <label for="">Confirm new password</label>\\r\\n                            <div class="input-group">\\r\\n                                <input type="password" class="form-control" id="confNewPass" name="confNewPass" placeholder="Enter new password again...">\\r\\n                                <span class="input-group-addon"></span>\\r\\n                            </div>\\r\\n                        </div>\\r\\n                        <input class="btn btn-primary pull-right" type="submit" name="submit" value="Save" id="saveEmail" onclick="ajax(\\\'\', escape=False)\nresponse.write(URL(\'default\', \'updatePass\'))\nresponse.write(\'\\\',[\\\'oldPass\\\', \\\'newPass\\\', \\\'confNewPass\\\'],\\\'oldPass\\\');"></input>\\r\\n                    </form>\\r\\n                </div>\\r\\n             </div> <!-- End of password setting -->\\r\\n\\r\\n            <div class="row">\\r\\n                <!-- Current Interests -->\\r\\n                <label>Your Interests:</label>\\r\\n                <div class="row">\\r\\n                    <div class="col-xs-11 col-sm-11 col-md-11">\\r\\n                        \', escape=False)\nvalue = \'\'\nresponse.write(\'\\r\\n                        \', escape=False)\nif len(role)>0\nresponse.write(\'\\r\\n                        \', escape=False)\nfor item in role.Interests:\n    value += item\n    response.write(\'\\r\\n                        \', escape=False)\n    pass\npass\nresponse.write(\'\\r\\n                        <input class="col-xs-11 col-sm-11 col-md-11" type="text" id="interests" name="interests" value=\\\'\', escape=False)\nresponse.write(value)\nresponse.write(\'\\\' data-role="tagsinput"></input>\\r\\n                    </div>\\r\\n                    <div class="col-xs-1 col-sm-1 col-md-1 ">\\r\\n                        <input type="submit" name="submit" value="Edit" class="btn btn-primary pull-right" id="editInterests">\\r\\n                    </div>\\r\\n                </div>\\r\\n                <!-- Change Interests form -->\\r\\n                <div class="panel-body" id="editInterestBox" style="display:none">\\r\\n                    <form role=\\\'form\\\'>\\r\\n                       <div class="form-group">\\r\\n                            <label for="">Update Interests:</label>\\r\\n                            <div class="input-group">\\r\\n                                <input type="text" id="newInterests" name="newInterests" value=\\\'\', escape=False)\nresponse.write(value)\nresponse.write(\'\\\' data-role="tagsinput"/>\\r\\n                            </div>\\r\\n                            <input class="btn btn-primary pull-right" type="submit" name="newInterests" value="Save" id="saveInterests" onclick="ajax(\\\'\', escape=False)\nresponse.write(URL(\'default\', \'updateInterest\'))\nresponse.write(\'\\\',[\\\'newInterests\\\'],\\\'interests\\\');"></input>\\r\\n                        </div>\\r\\n                        \\r\\n                    </form>\\r\\n                </div>\\r\\n             </div> <!-- End of interests setting --> \\r\\n            \\r\\n            <div class="row">\\r\\n                <!-- Current Contact -->\\r\\n                <label>Your contact number:</label>\\r\\n                <div class="row">\\r\\n                    <div class="col-xs-11 col-sm-11 col-md-11"> \', escape=False)\nresponse.write(user.Phone)\nresponse.write(\' </div>\\r\\n                    <div class="col-xs-1 col-sm-1 col-md-1 ">\\r\\n                        <input type="submit" name="submit" value="Edit" class="btn btn-primary pull-right" id="editPhone" name="editPhone">\\r\\n                    </div>\\r\\n                </div>\\r\\n                <!-- Change Contact form -->\\r\\n                <div class="panel-body" id="editPhoneBox" style="display:none">\\r\\n                    <form role=\\\'form\\\'>\\r\\n                       <div class="form-group">\\r\\n                            <label for="">Update contact number</label>\\r\\n                            <div class="input-group">\\r\\n                                <input type="text" class="form-control" id="newPhoneInput" name="newPhoneInput" placeholder="Enter new contact number">\\r\\n                                <span class="input-group-btn">\\r\\n                                    <input class="btn btn-primary pull-right" type="submit" value="Save" id="savePhone" onclick="ajax(\\\'\', escape=False)\nresponse.write(URL(\'default\', \'updatePhone\'))\nresponse.write(\'\\\',[\\\'newPhoneInput\\\'],\\\'editPhone\\\');"></input>\\r\\n                                </span>\\r\\n                            </div>\\r\\n                        </div>\\r\\n                    </form>\\r\\n                </div>\\r\\n             </div> <!-- End of Contact setting --> \\r\\n            \\r\\n            <div class="row">\\r\\n                <!-- Current Desc -->\\r\\n                <label>About me:</label>\\r\\n                <div class="row">\\r\\n                    <pre class="col-xs-11 col-sm-11 col-md-11" name="editAboutMe"> \', escape=False)\nresponse.write(user.AboutMe)\nresponse.write(\' </pre>\\r\\n                    <div class="col-xs-1 col-sm-1 col-md-1 ">\\r\\n                        <input type="submit" name="submit" value="Edit" class="btn btn-primary pull-right" id="editAboutMe">\\r\\n                    </div>\\r\\n                </div>\\r\\n                <!-- Change Contact form -->\\r\\n                <div class="panel-body" id="editAboutMeBox" style="display:none">\\r\\n                    <form role=\\\'form\\\'>\\r\\n                       <div class="form-group">\\r\\n                            <label for="">Update About me</label>\\r\\n                            <div class="input-group">\\r\\n                                <textarea type="text" class="form-control" id="newAboutMe" name="newAboutMe" value="heyho">\', escape=False)\nresponse.write(user.AboutMe)\nresponse.write(\'</textarea>\\r\\n                                <span class="input-group-addon"></span>\\r\\n                            </div>\\r\\n                        </div>\\r\\n                        <input class="btn btn-primary pull-right" type="submit" value="Save" id="saveAboutMe" onclick="ajax(\\\'\', escape=False)\nresponse.write(URL(\'default\', \'updateDesc\'))\nresponse.write(\'\\\',[\\\'newAboutMe\\\'],\\\'editAboutMe\\\');"></input>\\r\\n                    </form>\\r\\n                </div>\\r\\n             </div> <!-- End of Contact setting -->\\r\\n\\r\\n            \', escape=False)\nif user.User_Type == "Carer":\n    response.write(\'\\r\\n                <div class="row">\\r\\n                    <!-- Current CV -->\\r\\n                    <label>Update your CV:</label>\\r\\n                    <div class="row">\\r\\n                        <div class="col-xs-11 col-sm-11 col-md-11"> <a href="\', escape=False)\n    response.write(cvUrl)\n    response.write(\'">Cick to view</a> </div>\\r\\n                        <div class="col-xs-1 col-sm-1 col-md-1">\\r\\n                            <input type="submit" name="submit" value="Edit" class="btn btn-primary pull-right" id="editCV" name="editCV">\\r\\n                        </div>\\r\\n                    </div>\\r\\n\\r\\n                    <!-- Change CV form -->\\r\\n                    <div class="panel-body" id="editCVBox" style="display:none">\\r\\n                        <form role=\\\'form\\\'>\\r\\n                           <div class="form-group">\\r\\n                                <label for="">Upload new CV</label>\\r\\n                                <div class="input-group">\\r\\n                                    <input type="file" id="newCV" name="newCV" title="Search for a file to add">\\r\\n                                </div>\\r\\n                            </div>\\r\\n                            <input class="btn btn-primary pull-right" type="submit" value="Save" id="saveCV" onclick="ajax(\\\'\', escape=False)\n    response.write(URL(\'default\', \'updateCV\'))\n    response.write(\'\\\',[\\\'newCV\\\'],\\\'editCV\\\');"></input>\\r\\n                        </form>\\r\\n                    </div>\\r\\n                 </div> <!-- End of CV setting --> \\r\\n            \', escape=False)\n    pass\nresponse.write(\'\\r\\n         </div>\\r\\n    </div>  \\r\\n</div>\\r\\n<script src="\', escape=False)\nresponse.write(URL(\'static/js\',\'settings.js\'))\nresponse.write(\'"></script>\\r\\n<script src="\', escape=False)\nresponse.write(URL(\'static/js\',\'bootstrap-tagsinput.min.js\'))\nresponse.write(\'"></script>\\r\\n\', escape=False)\nresponse.write(\'\\n    </div>\\n\', escape=False)\nresponse.write(\'\\r\\n    <!-- The javascript =============================================\\r\\n    (Placed at the end of the document so the pages load faster) -->\\r\\n    <script src="\', escape=False)\nresponse.write(URL(\'static/js\',\'jquery-1.11.0.min.js\'))\nresponse.write(\'"></script>\\r\\n    <script src="\', escape=False)\nresponse.write(URL(\'static/js\',\'bootstrap.min.js\'))\nresponse.write(\'"></script>\\r\\n    <script src="\', escape=False)\nresponse.write(URL(\'static/js\',\'formTest.js\'))\nresponse.write(\'"></script>\\r\\n    <script src="\', escape=False)\nresponse.write(URL(\'static/js\',\'sanitise.js\'))\nresponse.write(\'"></script>\\r\\n    <script src="\', escape=False)\nresponse.write(URL(\'static/js\',\'search.js\'))\nresponse.write(\'"></script>\\r\\n    <script src="\', escape=False)\nresponse.write(URL(\'static/js\',\'userReg.js\'))\nresponse.write(\'"></script>\\r\\n        <script src="\', escape=False)\nresponse.write(URL(\'static/js\',\'star-rating.js\'))\nresponse.write(\'"></script>\\r\\n\\r\\n</body>\\r\\n</html>\\r\\n\', escape=False)'
p7
sS'snapshot'
p8
(dp9
S'exception'
p10
(dp11
S'__getslice__'
p12
S"<method-wrapper '__getslice__' of exceptions.SyntaxError object>"
p13
sS'text'
p14
S"'if len(role)>0\\n'"
p15
sS'__str__'
p16
S"<method-wrapper '__str__' of exceptions.SyntaxError object>"
p17
sS'__reduce__'
p18
S'<built-in method __reduce__ of exceptions.SyntaxError object>'
p19
sS'__dict__'
p20
S'{}'
p21
sS'__sizeof__'
p22
S'<built-in method __sizeof__ of exceptions.SyntaxError object>'
p23
sS'__init__'
p24
S"<method-wrapper '__init__' of exceptions.SyntaxError object>"
p25
sS'__setattr__'
p26
S"<method-wrapper '__setattr__' of exceptions.SyntaxError object>"
p27
sS'__reduce_ex__'
p28
S'<built-in method __reduce_ex__ of exceptions.SyntaxError object>'
p29
sS'__new__'
p30
S'<built-in method __new__ of type object>'
p31
sS'__format__'
p32
S'<built-in method __format__ of exceptions.SyntaxError object>'
p33
sS'__class__'
p34
S"<type 'exceptions.SyntaxError'>"
p35
sS'filename'
p36
S"r'C:\\Users\\4524\\Documents\\web2py_win\\web2py\\applications\\CareSeek2\\views\\default/settings.html'"
p37
sS'lineno'
p38
S'63'
p39
sS'msg'
p40
S"'invalid syntax'"
p41
sS'__doc__'
p42
S"'Invalid syntax.'"
p43
sS'__getitem__'
p44
S"<method-wrapper '__getitem__' of exceptions.SyntaxError object>"
p45
sS'__setstate__'
p46
S'<built-in method __setstate__ of exceptions.SyntaxError object>'
p47
sS'__getattribute__'
p48
S"<method-wrapper '__getattribute__' of exceptions.SyntaxError object>"
p49
sS'print_file_and_line'
p50
S'None'
p51
sS'args'
p52
S"('invalid syntax', (r'C:\\Users\\4524\\Documents\\web2py_win\\web2py\\applications\\CareSeek2\\views\\default/settings.html', 63, 15, 'if len(role)>0\\n'))"
p53
sS'__subclasshook__'
p54
S'<built-in method __subclasshook__ of type object>'
p55
sS'offset'
p56
S'15'
p57
sS'__unicode__'
p58
S'<built-in method __unicode__ of exceptions.SyntaxError object>'
p59
sS'__delattr__'
p60
S"<method-wrapper '__delattr__' of exceptions.SyntaxError object>"
p61
sS'__repr__'
p62
S"<method-wrapper '__repr__' of exceptions.SyntaxError object>"
p63
sS'__hash__'
p64
S"<method-wrapper '__hash__' of exceptions.SyntaxError object>"
p65
ssS'evalue'
p66
S'invalid syntax (default/settings.html, line 63)'
p67
sS'request'
p68
cgluon.html
XML_unpickle
p69
(S's\x12]\x00\x00<div><table><tr><td style="font-weight:bold;vertical-align:top;">ajax</td><td style="vertical-align:top;">:</td><td><div>False</div></td></tr><tr><td style="font-weight:bold;vertical-align:top;">application</td><td style="vertical-align:top;">:</td><td><div>CareSeek2</div></td></tr><tr><td style="font-weight:bold;vertical-align:top;">args</td><td style="vertical-align:top;">:</td><td><div><table></table></div></td></tr><tr><td style="font-weight:bold;vertical-align:top;">cid</td><td style="vertical-align:top;">:</td><td><div>None</div></td></tr><tr><td style="font-weight:bold;vertical-align:top;">client</td><td style="vertical-align:top;">:</td><td><div>127.0.0.1</div></td></tr><tr><td style="font-weight:bold;vertical-align:top;">controller</td><td style="vertical-align:top;">:</td><td><div>default</div></td></tr><tr><td style="font-weight:bold;vertical-align:top;">cookies</td><td style="vertical-align:top;">:</td><td><div><table><tr><td style="font-weight:bold;vertical-align:top;">session_id_admin</td><td style="vertical-align:top;">:</td><td><div>127.0.0.1-639eda4e-e0f5-43df-b6b1-3e039d8c91ec<table><tr><td style="font-weight:bold;vertical-align:top;">comment</td><td style="vertical-align:top;">:</td><td><div></div></td></tr><tr><td style="font-weight:bold;vertical-align:top;">domain</td><td style="vertical-align:top;">:</td><td><div></div></td></tr><tr><td style="font-weight:bold;vertical-align:top;">expires</td><td style="vertical-align:top;">:</td><td><div></div></td></tr><tr><td style="font-weight:bold;vertical-align:top;">httponly</td><td style="vertical-align:top;">:</td><td><div></div></td></tr><tr><td style="font-weight:bold;vertical-align:top;">max-age</td><td style="vertical-align:top;">:</td><td><div></div></td></tr><tr><td style="font-weight:bold;vertical-align:top;">path</td><td style="vertical-align:top;">:</td><td><div></div></td></tr><tr><td style="font-weight:bold;vertical-align:top;">secure</td><td style="vertical-align:top;">:</td><td><div></div></td></tr><tr><td style="font-weight:bold;vertical-align:top;">version</td><td style="vertical-align:top;">:</td><td><div></div></td></tr></table></div></td></tr><tr><td style="font-weight:bold;vertical-align:top;">session_id_careseek2</td><td style="vertical-align:top;">:</td><td><div>127.0.0.1-3f996de7-706e-46ce-8c3b-d1be0984d13e<table><tr><td style="font-weight:bold;vertical-align:top;">comment</td><td style="vertical-align:top;">:</td><td><div></div></td></tr><tr><td style="font-weight:bold;vertical-align:top;">domain</td><td style="vertical-align:top;">:</td><td><div></div></td></tr><tr><td style="font-weight:bold;vertical-align:top;">expires</td><td style="vertical-align:top;">:</td><td><div></div></td></tr><tr><td style="font-weight:bold;vertical-align:top;">httponly</td><td style="vertical-align:top;">:</td><td><div></div></td></tr><tr><td style="font-weight:bold;vertical-align:top;">max-age</td><td style="vertical-align:top;">:</td><td><div></div></td></tr><tr><td style="font-weight:bold;vertical-align:top;">path</td><td style="vertical-align:top;">:</td><td><div></div></td></tr><tr><td style="font-weight:bold;vertical-align:top;">secure</td><td style="vertical-align:top;">:</td><td><div></div></td></tr><tr><td style="font-weight:bold;vertical-align:top;">version</td><td style="vertical-align:top;">:</td><td><div></div></td></tr></table></div></td></tr><tr><td style="font-weight:bold;vertical-align:top;">session_id_welcome</td><td style="vertical-align:top;">:</td><td><div>127.0.0.1-520a05d8-b145-4b30-bd7d-4cc51d44ee0b<table><tr><td style="font-weight:bold;vertical-align:top;">comment</td><td style="vertical-align:top;">:</td><td><div></div></td></tr><tr><td style="font-weight:bold;vertical-align:top;">domain</td><td style="vertical-align:top;">:</td><td><div></div></td></tr><tr><td style="font-weight:bold;vertical-align:top;">expires</td><td style="vertical-align:top;">:</td><td><div></div></td></tr><tr><td style="font-weight:bold;vertical-align:top;">httponly</td><td style="vertical-align:top;">:</td><td><div></div></td></tr><tr><td style="font-weight:bold;vertical-align:top;">max-age</td><td style="vertical-align:top;">:</td><td><div></div></td></tr><tr><td style="font-weight:bold;vertical-align:top;">path</td><td style="vertical-align:top;">:</td><td><div></div></td></tr><tr><td style="font-weight:bold;vertical-align:top;">secure</td><td style="vertical-align:top;">:</td><td><div></div></td></tr><tr><td style="font-weight:bold;vertical-align:top;">version</td><td style="vertical-align:top;">:</td><td><div></div></td></tr></table></div></td></tr></table></div></td></tr><tr><td style="font-weight:bold;vertical-align:top;">env</td><td style="vertical-align:top;">:</td><td><div><table><tr><td style="font-weight:bold;vertical-align:top;">HTTP_ACCEPT</td><td style="vertical-align:top;">:</td><td><div>text/html,application/xhtml+xml,application/xml;q=0.9,image/webp,*/*;q=0.8</div></td></tr><tr><td style="font-weight:bold;vertical-align:top;">HTTP_ACCEPT_ENCODING</td><td style="vertical-align:top;">:</td><td><div>gzip,deflate,sdch</div></td></tr><tr><td style="font-weight:bold;vertical-align:top;">HTTP_ACCEPT_LANGUAGE</td><td style="vertical-align:top;">:</td><td><div>en-GB,en;q=0.8,en-US;q=0.6,vi;q=0.4</div></td></tr><tr><td style="font-weight:bold;vertical-align:top;">HTTP_CACHE_CONTROL</td><td style="vertical-align:top;">:</td><td><div>max-age=0</div></td></tr><tr><td style="font-weight:bold;vertical-align:top;">HTTP_CONNECTION</td><td style="vertical-align:top;">:</td><td><div>keep-alive</div></td></tr><tr><td style="font-weight:bold;vertical-align:top;">HTTP_COOKIE</td><td style="vertical-align:top;">:</td><td><div>session_id_welcome=127.0.0.1-520a05d8-b145-4b30-bd7d-4cc51d44ee0b; session_id_careseek2=127.0.0.1-3f996de7-706e-46ce-8c3b-d1be0984d13e; session_id_admin=127.0.0.1-639eda4e-e0f5-43df-b6b1-3e039d8c91ec</div></td></tr><tr><td style="font-weight:bold;vertical-align:top;">HTTP_HOST</td><td style="vertical-align:top;">:</td><td><div>127.0.0.1:8000</div></td></tr><tr><td style="font-weight:bold;vertical-align:top;">HTTP_REFERER</td><td style="vertical-align:top;">:</td><td><div>http://127.0.0.1:8000/CareSeek2/default/dashboard</div></td></tr><tr><td style="font-weight:bold;vertical-align:top;">HTTP_USER_AGENT</td><td style="vertical-align:top;">:</td><td><div>Mozilla/5.0 (Windows NT 6.1; WOW64) AppleWebKit/537.36 (KHTML, like Gecko) Chrome/35.0.1916.114 Safari/537.36</div></td></tr><tr><td style="font-weight:bold;vertical-align:top;">PATH_INFO</td><td style="vertical-align:top;">:</td><td><div>/CareSeek2/default/settings</div></td></tr><tr><td style="font-weight:bold;vertical-align:top;">QUERY_STRING</td><td style="vertical-align:top;">:</td><td><div></div></td></tr><tr><td style="font-weight:bold;vertical-align:top;">REMOTE_ADDR</td><td style="vertical-align:top;">:</td><td><div>127.0.0.1</div></td></tr><tr><td style="font-weight:bold;vertical-align:top;">REMOTE_PORT</td><td style="vertical-align:top;">:</td><td><div>51188</div></td></tr><tr><td style="font-weight:bold;vertical-align:top;">REQUEST_METHOD</td><td style="vertical-align:top;">:</td><td><div>GET</div></td></tr><tr><td style="font-weight:bold;vertical-align:top;">SCRIPT_NAME</td><td style="vertical-align:top;">:</td><td><div></div></td></tr><tr><td style="font-weight:bold;vertical-align:top;">SERVER_NAME</td><td style="vertical-align:top;">:</td><td><div>aun-021</div></td></tr><tr><td style="font-weight:bold;vertical-align:top;">SERVER_PORT</td><td style="vertical-align:top;">:</td><td><div>8000</div></td></tr><tr><td style="font-weight:bold;vertical-align:top;">SERVER_PROTOCOL</td><td style="vertical-align:top;">:</td><td><div>HTTP/1.1</div></td></tr><tr><td style="font-weight:bold;vertical-align:top;">SERVER_SOFTWARE</td><td style="vertical-align:top;">:</td><td><div>Rocket 1.2.6</div></td></tr><tr><td style="font-weight:bold;vertical-align:top;">app_folders</td><td style="vertical-align:top;">:</td><td><div>set([&#x27;C:\\\\Users\\\\4524\\\\Documents\\\\web2py_win\\\\web2py\\\\applications\\\\admin\\\\&#x27;, &#x27;C:\\\\Users\\\\4524\\\\Documents\\\\web2py_win\\\\web2py\\\\applications\\\\welcome\\\\&#x27;, &#x27;C:\\\\Users\\\\4524\\\\Documents\\\\web2py_win\\\\web2py\\\\applications\\\\CareSeek2\\\\&#x27;])</div></td></tr><tr><td style="font-weight:bold;vertical-align:top;">applications_parent</td><td style="vertical-align:top;">:</td><td><div>C:\\Users\\4524\\Documents\\web2py_win\\web2py</div></td></tr><tr><td style="font-weight:bold;vertical-align:top;">cmd_args</td><td style="vertical-align:top;">:</td><td><div><table></table></div></td></tr><tr><td style="font-weight:bold;vertical-align:top;">cmd_options</td><td style="vertical-align:top;">:</td><td><div>&lt;Values at 0x31aedf0: {&#x27;verbose&#x27;: False, &#x27;ip&#x27;: &#x27;127.0.0.1&#x27;, &#x27;debuglevel&#x27;: 30, &#x27;with_scheduler&#x27;: False, &#x27;ips&#x27;: [&#x27;10.9.153.104&#x27;, &#x27;::1&#x27;], &#x27;shutdown_timeout&#x27;: 5, &#x27;taskbar&#x27;: False, &#x27;with_coverage&#x27;: False, &#x27;port&#x27;: 8000, &#x27;maxthreads&#x27;: None, &#x27;softcron&#x27;: False, &#x27;server_name&#x27;: &#x27;aun-021&#x27;, &#x27;bpython&#x27;: False, &#x27;nogui&#x27;: False, &#x27;pid_filename&#x27;: &#x27;httpserver.pid&#x27;, &#x27;extcron&#x27;: False, &#x27;runcron&#x27;: False, &#x27;run_system_tests&#x27;: False, &#x27;test&#x27;: None, &#x27;folder&#x27;: &#x27;C:\\\\Users\\\\4524\\\\Documents\\\\web2py_win\\\\web2py&#x27;, &#x27;config&#x27;: &#x27;&#x27;, &#x27;minthreads&#x27;: None, &#x27;shell&#x27;: None, &#x27;run&#x27;: &#x27;&#x27;, &#x27;log_filename&#x27;: &#x27;httpserver.log&#x27;, &#x27;profiler_dir&#x27;: None, &#x27;args&#x27;: [&#x27;&#x27;], &#x27;socket_timeout&#x27;: 5, &#x27;ssl_ca_certificate&#x27;: None, &#x27;scheduler&#x27;: None, &#x27;interfaces&#x27;: None, &#x27;ssl_private_key&#x27;: &#x27;&#x27;, &#x27;scheduler_groups&#x27;: None, &#x27;password&#x27;: &#x27;&lt;ask&gt;&#x27;, &#x27;request_queue_size&#x27;: 5, &#x27;ssl_certificate&#x27;: &#x27;&#x27;, &#x27;cronjob&#x27;: False, &#x27;numthreads&#x27;: None, &#x27;quiet&#x27;: False, &#x27;import_models&#x27;: False, &#x27;timeout&#x27;: 10, &#x27;plain&#x27;: False, &#x27;nobanner&#x27;: False}&gt;</div></td></tr><tr><td style="font-weight:bold;vertical-align:top;">db_sessions</td><td style="vertical-align:top;">:</td><td><div>set([])</div></td></tr><tr><td style="font-weight:bold;vertical-align:top;">debugging</td><td style="vertical-align:top;">:</td><td><div>True</div></td></tr><tr><td style="font-weight:bold;vertical-align:top;">gluon_parent</td><td style="vertical-align:top;">:</td><td><div>C:\\Users\\4524\\Documents\\web2py_win\\web2py</div></td></tr><tr><td style="font-weight:bold;vertical-align:top;">http_accept</td><td style="vertical-align:top;">:</td><td><div>text/html,application/xhtml+xml,application/xml;q=0.9,image/webp,*/*;q=0.8</div></td></tr><tr><td style="font-weight:bold;vertical-align:top;">http_accept_encoding</td><td style="vertical-align:top;">:</td><td><div>gzip,deflate,sdch</div></td></tr><tr><td style="font-weight:bold;vertical-align:top;">http_accept_language</td><td style="vertical-align:top;">:</td><td><div>en-GB,en;q=0.8,en-US;q=0.6,vi;q=0.4</div></td></tr><tr><td style="font-weight:bold;vertical-align:top;">http_cache_control</td><td style="vertical-align:top;">:</td><td><div>max-age=0</div></td></tr><tr><td style="font-weight:bold;vertical-align:top;">http_connection</td><td style="vertical-align:top;">:</td><td><div>keep-alive</div></td></tr><tr><td style="font-weight:bold;vertical-align:top;">http_cookie</td><td style="vertical-align:top;">:</td><td><div>session_id_welcome=127.0.0.1-520a05d8-b145-4b30-bd7d-4cc51d44ee0b; session_id_careseek2=127.0.0.1-3f996de7-706e-46ce-8c3b-d1be0984d13e; session_id_admin=127.0.0.1-639eda4e-e0f5-43df-b6b1-3e039d8c91ec</div></td></tr><tr><td style="font-weight:bold;vertical-align:top;">http_host</td><td style="vertical-align:top;">:</td><td><div>127.0.0.1:8000</div></td></tr><tr><td style="font-weight:bold;vertical-align:top;">http_referer</td><td style="vertical-align:top;">:</td><td><div>http://127.0.0.1:8000/CareSeek2/default/dashboard</div></td></tr><tr><td style="font-weight:bold;vertical-align:top;">http_user_agent</td><td style="vertical-align:top;">:</td><td><div>Mozilla/5.0 (Windows NT 6.1; WOW64) AppleWebKit/537.36 (KHTML, like Gecko) Chrome/35.0.1916.114 Safari/537.36</div></td></tr><tr><td style="font-weight:bold;vertical-align:top;">is_jython</td><td style="vertical-align:top;">:</td><td><div>False</div></td></tr><tr><td style="font-weight:bold;vertical-align:top;">is_pypy</td><td style="vertical-align:top;">:</td><td><div>False</div></td></tr><tr><td style="font-weight:bold;vertical-align:top;">is_source</td><td style="vertical-align:top;">:</td><td><div>False</div></td></tr><tr><td style="font-weight:bold;vertical-align:top;">local_hosts</td><td style="vertical-align:top;">:</td><td><div><table><tr><td><div>10.9.153.104</div></td></tr><tr><td><div>aun-021.itsunami.com.au</div></td></tr><tr><td><div>::ffff:127.0.0.1</div></td></tr><tr><td><div>::1</div></td></tr><tr><td><div>aun-021</div></td></tr><tr><td><div>127.0.0.1</div></td></tr></table></div></td></tr><tr><td style="font-weight:bold;vertical-align:top;">path_info</td><td style="vertical-align:top;">:</td><td><div>/CareSeek2/default/settings</div></td></tr><tr><td style="font-weight:bold;vertical-align:top;">query_string</td><td style="vertical-align:top;">:</td><td><div></div></td></tr><tr><td style="font-weight:bold;vertical-align:top;">remote_addr</td><td style="vertical-align:top;">:</td><td><div>127.0.0.1</div></td></tr><tr><td style="font-weight:bold;vertical-align:top;">remote_port</td><td style="vertical-align:top;">:</td><td><div>51188</div></td></tr><tr><td style="font-weight:bold;vertical-align:top;">request_method</td><td style="vertical-align:top;">:</td><td><div>GET</div></td></tr><tr><td style="font-weight:bold;vertical-align:top;">request_uri</td><td style="vertical-align:top;">:</td><td><div>/CareSeek2/default/settings</div></td></tr><tr><td style="font-weight:bold;vertical-align:top;">script_name</td><td style="vertical-align:top;">:</td><td><div></div></td></tr><tr><td style="font-weight:bold;vertical-align:top;">server_name</td><td style="vertical-align:top;">:</td><td><div>aun-021</div></td></tr><tr><td style="font-weight:bold;vertical-align:top;">server_port</td><td style="vertical-align:top;">:</td><td><div>8000</div></td></tr><tr><td style="font-weight:bold;vertical-align:top;">server_protocol</td><td style="vertical-align:top;">:</td><td><div>HTTP/1.1</div></td></tr><tr><td style="font-weight:bold;vertical-align:top;">server_software</td><td style="vertical-align:top;">:</td><td><div>Rocket 1.2.6</div></td></tr><tr><td style="font-weight:bold;vertical-align:top;">web2py_path</td><td style="vertical-align:top;">:</td><td><div>C:\\Users\\4524\\Documents\\web2py_win\\web2py</div></td></tr><tr><td style="font-weight:bold;vertical-align:top;">web2py_version</td><td style="vertical-align:top;">:</td><td><div>2.9.5-stable+timestamp.2014.03.20.22.57.13</div></td></tr><tr><td style="font-weight:bold;vertical-align:top;">wsgi.errors</td><td style="vertical-align:top;">:</td><td><div>&lt;open file &#x27;&lt;stderr&gt;&#x27;, mode &#x27;w&#x27; at 0x004560D0&gt;</div></td></tr><tr><td style="font-weight:bold;vertical-align:top;">wsgi.file_wrapper</td><td style="vertical-align:top;">:</td><td><div>&lt;class wsgiref.util.FileWrapper at 0x01FDA148&gt;</div></td></tr><tr><td style="font-weight:bold;vertical-align:top;">wsgi.input</td><td style="vertical-align:top;">:</td><td><div>&lt;socket._fileobject object at 0x080265B0&gt;</div></td></tr><tr><td style="font-weight:bold;vertical-align:top;">wsgi.multiprocess</td><td style="vertical-align:top;">:</td><td><div>False</div></td></tr><tr><td style="font-weight:bold;vertical-align:top;">wsgi.multithread</td><td style="vertical-align:top;">:</td><td><div>True</div></td></tr><tr><td style="font-weight:bold;vertical-align:top;">wsgi.run_once</td><td style="vertical-align:top;">:</td><td><div>False</div></td></tr><tr><td style="font-weight:bold;vertical-align:top;">wsgi.url_scheme</td><td style="vertical-align:top;">:</td><td><div>http</div></td></tr><tr><td style="font-weight:bold;vertical-align:top;">wsgi.version</td><td style="vertical-align:top;">:</td><td><div><table><tr><td><div>1</div></td></tr><tr><td><div>0</div></td></tr></table></div></td></tr><tr><td style="font-weight:bold;vertical-align:top;">wsgi_errors</td><td style="vertical-align:top;">:</td><td><div>&lt;open file &#x27;&lt;stderr&gt;&#x27;, mode &#x27;w&#x27; at 0x004560D0&gt;</div></td></tr><tr><td style="font-weight:bold;vertical-align:top;">wsgi_file_wrapper</td><td style="vertical-align:top;">:</td><td><div>&lt;class wsgiref.util.FileWrapper at 0x01FDA148&gt;</div></td></tr><tr><td style="font-weight:bold;vertical-align:top;">wsgi_input</td><td style="vertical-align:top;">:</td><td><div>&lt;socket._fileobject object at 0x080265B0&gt;</div></td></tr><tr><td style="font-weight:bold;vertical-align:top;">wsgi_multiprocess</td><td style="vertical-align:top;">:</td><td><div>False</div></td></tr><tr><td style="font-weight:bold;vertical-align:top;">wsgi_multithread</td><td style="vertical-align:top;">:</td><td><div>True</div></td></tr><tr><td style="font-weight:bold;vertical-align:top;">wsgi_run_once</td><td style="vertical-align:top;">:</td><td><div>False</div></td></tr><tr><td style="font-weight:bold;vertical-align:top;">wsgi_url_scheme</td><td style="vertical-align:top;">:</td><td><div>http</div></td></tr><tr><td style="font-weight:bold;vertical-align:top;">wsgi_version</td><td style="vertical-align:top;">:</td><td><div><table><tr><td><div>1</div></td></tr><tr><td><div>0</div></td></tr></table></div></td></tr></table></div></td></tr><tr><td style="font-weight:bold;vertical-align:top;">extension</td><td style="vertical-align:top;">:</td><td><div>html</div></td></tr><tr><td style="font-weight:bold;vertical-align:top;">folder</td><td style="vertical-align:top;">:</td><td><div>C:\\Users\\4524\\Documents\\web2py_win\\web2py\\applications\\CareSeek2\\</div></td></tr><tr><td style="font-weight:bold;vertical-align:top;">function</td><td style="vertical-align:top;">:</td><td><div>settings</div></td></tr><tr><td style="font-weight:bold;vertical-align:top;">global_settings</td><td style="vertical-align:top;">:</td><td><div><table><tr><td style="font-weight:bold;vertical-align:top;">app_folders</td><td style="vertical-align:top;">:</td><td><div>set([&#x27;C:\\\\Users\\\\4524\\\\Documents\\\\web2py_win\\\\web2py\\\\applications\\\\admin\\\\&#x27;, &#x27;C:\\\\Users\\\\4524\\\\Documents\\\\web2py_win\\\\web2py\\\\applications\\\\welcome\\\\&#x27;, &#x27;C:\\\\Users\\\\4524\\\\Documents\\\\web2py_win\\\\web2py\\\\applications\\\\CareSeek2\\\\&#x27;])</div></td></tr><tr><td style="font-weight:bold;vertical-align:top;">applications_parent</td><td style="vertical-align:top;">:</td><td><div>C:\\Users\\4524\\Documents\\web2py_win\\web2py</div></td></tr><tr><td style="font-weight:bold;vertical-align:top;">cmd_args</td><td style="vertical-align:top;">:</td><td><div><table></table></div></td></tr><tr><td style="font-weight:bold;vertical-align:top;">cmd_options</td><td style="vertical-align:top;">:</td><td><div>&lt;Values at 0x31aedf0: {&#x27;verbose&#x27;: False, &#x27;ip&#x27;: &#x27;127.0.0.1&#x27;, &#x27;debuglevel&#x27;: 30, &#x27;with_scheduler&#x27;: False, &#x27;ips&#x27;: [&#x27;10.9.153.104&#x27;, &#x27;::1&#x27;], &#x27;shutdown_timeout&#x27;: 5, &#x27;taskbar&#x27;: False, &#x27;with_coverage&#x27;: False, &#x27;port&#x27;: 8000, &#x27;maxthreads&#x27;: None, &#x27;softcron&#x27;: False, &#x27;server_name&#x27;: &#x27;aun-021&#x27;, &#x27;bpython&#x27;: False, &#x27;nogui&#x27;: False, &#x27;pid_filename&#x27;: &#x27;httpserver.pid&#x27;, &#x27;extcron&#x27;: False, &#x27;runcron&#x27;: False, &#x27;run_system_tests&#x27;: False, &#x27;test&#x27;: None, &#x27;folder&#x27;: &#x27;C:\\\\Users\\\\4524\\\\Documents\\\\web2py_win\\\\web2py&#x27;, &#x27;config&#x27;: &#x27;&#x27;, &#x27;minthreads&#x27;: None, &#x27;shell&#x27;: None, &#x27;run&#x27;: &#x27;&#x27;, &#x27;log_filename&#x27;: &#x27;httpserver.log&#x27;, &#x27;profiler_dir&#x27;: None, &#x27;args&#x27;: [&#x27;&#x27;], &#x27;socket_timeout&#x27;: 5, &#x27;ssl_ca_certificate&#x27;: None, &#x27;scheduler&#x27;: None, &#x27;interfaces&#x27;: None, &#x27;ssl_private_key&#x27;: &#x27;&#x27;, &#x27;scheduler_groups&#x27;: None, &#x27;password&#x27;: &#x27;&lt;ask&gt;&#x27;, &#x27;request_queue_size&#x27;: 5, &#x27;ssl_certificate&#x27;: &#x27;&#x27;, &#x27;cronjob&#x27;: False, &#x27;numthreads&#x27;: None, &#x27;quiet&#x27;: False, &#x27;import_models&#x27;: False, &#x27;timeout&#x27;: 10, &#x27;plain&#x27;: False, &#x27;nobanner&#x27;: False}&gt;</div></td></tr><tr><td style="font-weight:bold;vertical-align:top;">db_sessions</td><td style="vertical-align:top;">:</td><td><div>set([])</div></td></tr><tr><td style="font-weight:bold;vertical-align:top;">debugging</td><td style="vertical-align:top;">:</td><td><div>True</div></td></tr><tr><td style="font-weight:bold;vertical-align:top;">gluon_parent</td><td style="vertical-align:top;">:</td><td><div>C:\\Users\\4524\\Documents\\web2py_win\\web2py</div></td></tr><tr><td style="font-weight:bold;vertical-align:top;">is_jython</td><td style="vertical-align:top;">:</td><td><div>False</div></td></tr><tr><td style="font-weight:bold;vertical-align:top;">is_pypy</td><td style="vertical-align:top;">:</td><td><div>False</div></td></tr><tr><td style="font-weight:bold;vertical-align:top;">is_source</td><td style="vertical-align:top;">:</td><td><div>False</div></td></tr><tr><td style="font-weight:bold;vertical-align:top;">local_hosts</td><td style="vertical-align:top;">:</td><td><div><table><tr><td><div>10.9.153.104</div></td></tr><tr><td><div>aun-021.itsunami.com.au</div></td></tr><tr><td><div>::ffff:127.0.0.1</div></td></tr><tr><td><div>::1</div></td></tr><tr><td><div>aun-021</div></td></tr><tr><td><div>127.0.0.1</div></td></tr></table></div></td></tr><tr><td style="font-weight:bold;vertical-align:top;">web2py_version</td><td style="vertical-align:top;">:</td><td><div>2.9.5-stable+timestamp.2014.03.20.22.57.13</div></td></tr></table></div></td></tr><tr><td style="font-weight:bold;vertical-align:top;">is_https</td><td style="vertical-align:top;">:</td><td><div>False</div></td></tr><tr><td style="font-weight:bold;vertical-align:top;">is_local</td><td style="vertical-align:top;">:</td><td><div>True</div></td></tr><tr><td style="font-weight:bold;vertical-align:top;">is_restful</td><td style="vertical-align:top;">:</td><td><div>False</div></td></tr><tr><td style="font-weight:bold;vertical-align:top;">now</td><td style="vertical-align:top;">:</td><td><div>datetime.datetime(2014, 5, 28, 14, 18, 26, 794000)</div></td></tr><tr><td style="font-weight:bold;vertical-align:top;">raw_args</td><td style="vertical-align:top;">:</td><td><div></div></td></tr><tr><td style="font-weight:bold;vertical-align:top;">raw_extension</td><td style="vertical-align:top;">:</td><td><div>None</div></td></tr><tr><td style="font-weight:bold;vertical-align:top;">url</td><td style="vertical-align:top;">:</td><td><div>/CareSeek2/default/settings</div></td></tr><tr><td style="font-weight:bold;vertical-align:top;">utcnow</td><td style="vertical-align:top;">:</td><td><div>datetime.datetime(2014, 5, 28, 4, 18, 26, 794000)</div></td></tr><tr><td style="font-weight:bold;vertical-align:top;">uuid</td><td style="vertical-align:top;">:</td><td><div>CareSeek2/127.0.0.1.2014-05-28.14-18-26.83309b3f-1098-4287-9903-5cd13940b2f8</div></td></tr><tr><td style="font-weight:bold;vertical-align:top;">wsgi</td><td style="vertical-align:top;">:</td><td><div>&lt;gluon.main.LazyWSGI object at 0x081FE1D0&gt;</div></td></tr></table></div>'
tRp70
sS'frames'
p71
(lp72
(dp73
S'file'
p74
S'C:\\home\\mdipierro\\make_web2py\\web2py\\gluon\\restricted.py'
p75
sS'dump'
p76
(dp77
sS'lnum'
p78
I219
sS'lines'
p79
(dp80
sS'call'
p81
S'(code=r"response.write(\'<!-- saved from url=(0050)http:/...pt>\\r\\n\\r\\n</body>\\r\\n</html>\\r\\n\', escape=False)", environment={\'A\': <class \'gluon.html.A\'>, \'ANY_OF\': <class \'gluon.validators.ANY_OF\'>, \'Auth\': <class \'gluon.tools.Auth\'>, \'B\': <class \'gluon.html.B\'>, \'BEAUTIFY\': <class \'gluon.html.BEAUTIFY\'>, \'BODY\': <class \'gluon.html.BODY\'>, \'BR\': <class \'gluon.html.BR\'>, \'BUTTON\': <class \'gluon.html.BUTTON\'>, \'CAT\': <class \'gluon.html.CAT\'>, \'CENTER\': <class \'gluon.html.CENTER\'>, ...}, layer=r\'C:\\Users\\4524\\Documents\\web2py_win\\web2py\\applications\\CareSeek2\\views\\default/settings.html\')'
p82
sS'func'
p83
S'restricted'
p84
sa(dp85
g74
S'C:\\home\\mdipierro\\make_web2py\\web2py\\gluon\\restricted.py'
p86
sg76
(dp87
sg78
I202
sg79
(dp88
sg81
S'(code=r"response.write(\'<!-- saved from url=(0050)http:/...pt>\\r\\n\\r\\n</body>\\r\\n</html>\\r\\n\', escape=False)", layer=r\'C:\\Users\\4524\\Documents\\web2py_win\\web2py\\applications\\CareSeek2\\views\\default/settings.html\')'
p89
sg83
S'compile2'
p90
sasS'pyver'
p91
S'Python 2.7.6: C:\\Users\\4524\\Documents\\web2py_win\\web2py\\web2py.exe (prefix: C:\\Python27)'
p92
sS'session'
p93
g69
(S's^\x11\x00\x00<div><table><tr><td style="font-weight:bold;vertical-align:top;">auth</td><td style="vertical-align:top;">:</td><td><div><table><tr><td style="font-weight:bold;vertical-align:top;">expiration</td><td style="vertical-align:top;">:</td><td><div>3600</div></td></tr><tr><td style="font-weight:bold;vertical-align:top;">hmac_key</td><td style="vertical-align:top;">:</td><td><div>90ae3e55-f1aa-4fb1-bfc1-19fdd0f7167a</div></td></tr><tr><td style="font-weight:bold;vertical-align:top;">last_visit</td><td style="vertical-align:top;">:</td><td><div>datetime.datetime(2014, 5, 28, 14, 15, 3, 514000)</div></td></tr><tr><td style="font-weight:bold;vertical-align:top;">user</td><td style="vertical-align:top;">:</td><td><div><table><tr><td style="font-weight:bold;vertical-align:top;">AboutMe</td><td style="vertical-align:top;">:</td><td><div>Roy Dowling (1901\xe2\x80\x931969) was a senior commander in the Royal Australian Navy (RAN). He graduated from the Royal Australian Naval College in 1919 and was given command of the sloop HMAS Swan in 1937. During World War II, he saw action in the Mediterranean aboard HMS Naiad (surviving her sinking in 1942), served as Deputy Chief of Naval Staff, and commanded HMAS Hobart in the South West Pacific, earning the Distinguished Service Order. Dowling took command of the RAN&#x27;s first aircraft carrier, HMAS Sydney, in 1948. He rose to become Chief of Naval Staff (CNS), the RAN&#x27;s highest-ranking position, from 1955 until 1959. As CNS he had to deal with shortages of money, manpower and equipment, and with the increasing role of the United States in Australia&#x27;s defence planning at the expense of traditional ties with Britain. Knighted in 1957, he served as Chairman of the Chiefs of Staff Committee from 1959 until 1961, when he retired. In 1963 he was appointed a Knight Commander of the Royal Victorian Order and becam</div></td></tr><tr><td style="font-weight:bold;vertical-align:top;">Age</td><td style="vertical-align:top;">:</td><td><div>23L</div></td></tr><tr><td style="font-weight:bold;vertical-align:top;">Gender</td><td style="vertical-align:top;">:</td><td><div>Female</div></td></tr><tr><td style="font-weight:bold;vertical-align:top;">MyPict</td><td style="vertical-align:top;">:</td><td><div>auth_user.MyPict.a8232683f6055965.50656e6775696e732e6a7067.jpg</div></td></tr><tr><td style="font-weight:bold;vertical-align:top;">Phone</td><td style="vertical-align:top;">:</td><td><div>78978979L</div></td></tr><tr><td style="font-weight:bold;vertical-align:top;">User_Type</td><td style="vertical-align:top;">:</td><td><div>Care Seeker</div></td></tr><tr><td style="font-weight:bold;vertical-align:top;">email</td><td style="vertical-align:top;">:</td><td><div>nhim@94mail.com</div></td></tr><tr><td style="font-weight:bold;vertical-align:top;">first_name</td><td style="vertical-align:top;">:</td><td><div>Vic</div></td></tr><tr><td style="font-weight:bold;vertical-align:top;">id</td><td style="vertical-align:top;">:</td><td><div>17L</div></td></tr><tr><td style="font-weight:bold;vertical-align:top;">last_name</td><td style="vertical-align:top;">:</td><td><div>Smith</div></td></tr><tr><td style="font-weight:bold;vertical-align:top;">registration_id</td><td style="vertical-align:top;">:</td><td><div></div></td></tr><tr><td style="font-weight:bold;vertical-align:top;">registration_key</td><td style="vertical-align:top;">:</td><td><div></div></td></tr><tr><td style="font-weight:bold;vertical-align:top;">reset_password_key</td><td style="vertical-align:top;">:</td><td><div></div></td></tr><tr><td style="font-weight:bold;vertical-align:top;">username</td><td style="vertical-align:top;">:</td><td><div>Annie</div></td></tr></table></div></td></tr><tr><td style="font-weight:bold;vertical-align:top;">user_groups</td><td style="vertical-align:top;">:</td><td><div><table><tr><td style="font-weight:bold;vertical-align:top;">14</td><td style="vertical-align:top;">:</td><td><div>user_17</div></td></tr></table></div></td></tr></table></div></td></tr><tr><td style="font-weight:bold;vertical-align:top;">flash</td><td style="vertical-align:top;">:</td><td><div>None</div></td></tr><tr><td style="font-weight:bold;vertical-align:top;">last_orderby</td><td style="vertical-align:top;">:</td><td><div>None</div></td></tr><tr><td style="font-weight:bold;vertical-align:top;">last_query</td><td style="vertical-align:top;">:</td><td><div>db.Carer.id&gt;0</div></td></tr></table></div>'
tRp94
sS'etype'
p95
S"<type 'exceptions.SyntaxError'>"
p96
sS'date'
p97
S'Wed May 28 14:18:27 2014'
p98
sS'response'
p99
g69
(S's\xc61\x00\x00<div><table><tr><td style="font-weight:bold;vertical-align:top;">body</td><td style="vertical-align:top;">:</td><td><div>&lt;cStringIO.StringO object at 0x081FE2C0&gt;</div></td></tr><tr><td style="font-weight:bold;vertical-align:top;">cookies</td><td style="vertical-align:top;">:</td><td><div><table><tr><td style="font-weight:bold;vertical-align:top;">session_id_careseek2</td><td style="vertical-align:top;">:</td><td><div>127.0.0.1-3f996de7-706e-46ce-8c3b-d1be0984d13e<table><tr><td style="font-weight:bold;vertical-align:top;">comment</td><td style="vertical-align:top;">:</td><td><div></div></td></tr><tr><td style="font-weight:bold;vertical-align:top;">domain</td><td style="vertical-align:top;">:</td><td><div></div></td></tr><tr><td style="font-weight:bold;vertical-align:top;">expires</td><td style="vertical-align:top;">:</td><td><div></div></td></tr><tr><td style="font-weight:bold;vertical-align:top;">httponly</td><td style="vertical-align:top;">:</td><td><div></div></td></tr><tr><td style="font-weight:bold;vertical-align:top;">max-age</td><td style="vertical-align:top;">:</td><td><div></div></td></tr><tr><td style="font-weight:bold;vertical-align:top;">path</td><td style="vertical-align:top;">:</td><td><div>/</div></td></tr><tr><td style="font-weight:bold;vertical-align:top;">secure</td><td style="vertical-align:top;">:</td><td><div></div></td></tr><tr><td style="font-weight:bold;vertical-align:top;">version</td><td style="vertical-align:top;">:</td><td><div></div></td></tr></table></div></td></tr></table></div></td></tr><tr><td style="font-weight:bold;vertical-align:top;">delimiters</td><td style="vertical-align:top;">:</td><td><div><table><tr><td><div>{{</div></td></tr><tr><td><div>}}</div></td></tr></table></div></td></tr><tr><td style="font-weight:bold;vertical-align:top;">files</td><td style="vertical-align:top;">:</td><td><div><table></table></div></td></tr><tr><td style="font-weight:bold;vertical-align:top;">flash</td><td style="vertical-align:top;">:</td><td><div></div></td></tr><tr><td style="font-weight:bold;vertical-align:top;">generic_patterns</td><td style="vertical-align:top;">:</td><td><div><table><tr><td><div>*</div></td></tr></table></div></td></tr><tr><td style="font-weight:bold;vertical-align:top;">google_analytics_id</td><td style="vertical-align:top;">:</td><td><div>None</div></td></tr><tr><td style="font-weight:bold;vertical-align:top;">headers</td><td style="vertical-align:top;">:</td><td><div><table><tr><td style="font-weight:bold;vertical-align:top;">X-Powered-By</td><td style="vertical-align:top;">:</td><td><div>web2py</div></td></tr></table></div></td></tr><tr><td style="font-weight:bold;vertical-align:top;">logo</td><td style="vertical-align:top;">:</td><td><div><a class="brand" href="http://www.web2py.com/"><b>web<span>2</span>py</b>&trade;&nbsp;</a></div></td></tr><tr><td style="font-weight:bold;vertical-align:top;">menu</td><td style="vertical-align:top;">:</td><td><div><table><tr><td><div><table><tr><td><div>Home</div></td></tr><tr><td><div>False</div></td></tr><tr><td><div>/CareSeek2/default/index</div></td></tr><tr><td><div><table></table></div></td></tr></table></div></td></tr><tr><td><div><table><tr><td><div><span class="highlighted">web2py</span></div></td></tr><tr><td><div>False</div></td></tr><tr><td><div>http://web2py.com</div></td></tr><tr><td><div><table><tr><td><div><table><tr><td><div>My Sites</div></td></tr><tr><td><div>False</div></td></tr><tr><td><div>/admin/default/site</div></td></tr></table></div></td></tr><tr><td><div><table><tr><td><div>This App</div></td></tr><tr><td><div>False</div></td></tr><tr><td><div>/admin/default/design/CareSeek2</div></td></tr><tr><td><div>[(&lt;lazyT &#x27;Controller&#x27;&gt;, False, &#x27;/admin/default/edit/CareSeek2/controllers/default.py&#x27;), (&lt;lazyT &#x27;View&#x27;&gt;, False, &#x27;/admin/default/edit/CareSeek2/views/default/settings.html&#x27;), (&lt;lazyT &#x27;Layout&#x27;&gt;, False, &#x27;/admin/default/edit/CareSeek2/views/layout.html&#x27;), (&lt;lazyT &#x27;Stylesheet&#x27;&gt;, False, &#x27;/admin/default/edit/CareSeek2/static/css/web2py.css&#x27;), (&lt;lazyT &#x27;DB Model&#x27;&gt;, False, &#x27;/admin/default/edit/CareSeek2/models/db.py&#x27;), (&lt;lazyT &#x27;Menu Model&#x27;&gt;, False, &#x27;/admin/default/edit/CareSeek2/models/menu.py&#x27;), (&lt;lazyT &#x27;Database&#x27;&gt;, False, &#x27;/CareSeek2/appadmin/index&#x27;), (&lt;lazyT &#x27;Errors&#x27;&gt;, False, &#x27;/admin/default/errors/CareSeek2&#x27;), (&lt;lazyT &#x27;About&#x27;&gt;, False, &#x27;/admin/default/about/CareSeek2&#x27;)]</div></td></tr></table></div></td></tr><tr><td><div><table><tr><td><div>web2py.com</div></td></tr><tr><td><div>False</div></td></tr><tr><td><div>http://www.web2py.com</div></td></tr><tr><td><div>[(&lt;lazyT &#x27;Download&#x27;&gt;, False, &#x27;http://www.web2py.com/examples/default/download&#x27;), (&lt;lazyT &#x27;Support&#x27;&gt;, False, &#x27;http://www.web2py.com/examples/default/support&#x27;), (&lt;lazyT &#x27;Demo&#x27;&gt;, False, &#x27;http://web2py.com/demo_admin&#x27;), (&lt;lazyT &#x27;Quick Examples&#x27;&gt;, False, &#x27;http://web2py.com/examples/default/examples&#x27;), (&lt;lazyT &#x27;FAQ&#x27;&gt;, False, &#x27;http://web2py.com/AlterEgo&#x27;), (&lt;lazyT &#x27;Videos&#x27;&gt;, False, &#x27;http://www.web2py.com/examples/default/videos/&#x27;), (&lt;lazyT &#x27;Free Applications&#x27;&gt;, False, &#x27;http://web2py.com/appliances&#x27;), (&lt;lazyT &#x27;Plugins&#x27;&gt;, False, &#x27;http://web2py.com/plugins&#x27;), (&lt;lazyT &#x27;Layouts&#x27;&gt;, False, &#x27;http://web2py.com/layouts&#x27;), (&lt;lazyT &#x27;Recipes&#x27;&gt;, False, &#x27;http://web2pyslices.com/&#x27;), (&lt;lazyT &#x27;Semantic&#x27;&gt;, False, &#x27;http://web2py.com/semantic&#x27;)]</div></td></tr></table></div></td></tr><tr><td><div><table><tr><td><div>Documentation</div></td></tr><tr><td><div>False</div></td></tr><tr><td><div>http://www.web2py.com/book</div></td></tr><tr><td><div>[(&lt;lazyT &#x27;Preface&#x27;&gt;, False, &#x27;http://www.web2py.com/book/default/chapter/00&#x27;), (&lt;lazyT &#x27;Introduction&#x27;&gt;, False, &#x27;http://www.web2py.com/book/default/chapter/01&#x27;), (&lt;lazyT &#x27;Python&#x27;&gt;, False, &#x27;http://www.web2py.com/book/default/chapter/02&#x27;), (&lt;lazyT &#x27;Overview&#x27;&gt;, False, &#x27;http://www.web2py.com/book/default/chapter/03&#x27;), (&lt;lazyT &#x27;The Core&#x27;&gt;, False, &#x27;http://www.web2py.com/book/default/chapter/04&#x27;), (&lt;lazyT &#x27;The Views&#x27;&gt;, False, &#x27;http://www.web2py.com/book/default/chapter/05&#x27;), (&lt;lazyT &#x27;Database&#x27;&gt;, False, &#x27;http://www.web2py.com/book/default/chapter/06&#x27;), (&lt;lazyT &#x27;Forms and Validators&#x27;&gt;, False, &#x27;http://www.web2py.com/book/default/chapter/07&#x27;), (&lt;lazyT &#x27;Email and SMS&#x27;&gt;, False, &#x27;http://www.web2py.com/book/default/chapter/08&#x27;), (&lt;lazyT &#x27;Access Control&#x27;&gt;, False, &#x27;http://www.web2py.com/book/default/chapter/09&#x27;), (&lt;lazyT &#x27;Services&#x27;&gt;, False, &#x27;http://www.web2py.com/book/default/chapter/10&#x27;), (&lt;lazyT &#x27;Ajax Recipes&#x27;&gt;, False, &#x27;http://www.web2py.com/book/default/chapter/11&#x27;), (&lt;lazyT &#x27;Components and Plugins&#x27;&gt;, False, &#x27;http://www.web2py.com/book/default/chapter/12&#x27;), (&lt;lazyT &#x27;Deployment Recipes&#x27;&gt;, False, &#x27;http://www.web2py.com/book/default/chapter/13&#x27;), (&lt;lazyT &#x27;Other Recipes&#x27;&gt;, False, &#x27;http://www.web2py.com/book/default/chapter/14&#x27;), (&lt;lazyT &#x27;Buy this book&#x27;&gt;, False, &#x27;http://stores.lulu.com/web2py&#x27;)]</div></td></tr></table></div></td></tr><tr><td><div><table><tr><td><div>Community</div></td></tr><tr><td><div>False</div></td></tr><tr><td><div>None</div></td></tr><tr><td><div>[(&lt;lazyT &#x27;Groups&#x27;&gt;, False, &#x27;http://www.web2py.com/examples/default/usergroups&#x27;), (&lt;lazyT &#x27;Twitter&#x27;&gt;, False, &#x27;http://twitter.com/web2py&#x27;), (&lt;lazyT &#x27;Live Chat&#x27;&gt;, False, &#x27;http://webchat.freenode.net/?channels=web2py&#x27;)]</div></td></tr></table></div></td></tr><tr><td><div><table><tr><td><div>Plugins</div></td></tr><tr><td><div>False</div></td></tr><tr><td><div>None</div></td></tr><tr><td><div>[(&#x27;plugin_wiki&#x27;, False, &#x27;http://web2py.com/examples/default/download&#x27;), (&lt;lazyT &#x27;Other Plugins&#x27;&gt;, False, &#x27;http://web2py.com/plugins&#x27;), (&lt;lazyT &#x27;Layout Plugins&#x27;&gt;, False, &#x27;http://web2py.com/layouts&#x27;)]</div></td></tr></table></div></td></tr></table></div></td></tr></table></div></td></tr></table></div></td></tr><tr><td style="font-weight:bold;vertical-align:top;">meta</td><td style="vertical-align:top;">:</td><td><div><table><tr><td style="font-weight:bold;vertical-align:top;">author</td><td style="vertical-align:top;">:</td><td><div>Your Name &lt;you@example.com&gt;</div></td></tr><tr><td style="font-weight:bold;vertical-align:top;">generator</td><td style="vertical-align:top;">:</td><td><div>Web2py Web Framework</div></td></tr><tr><td style="font-weight:bold;vertical-align:top;">keywords</td><td style="vertical-align:top;">:</td><td><div>web2py, python, framework</div></td></tr></table></div></td></tr><tr><td style="font-weight:bold;vertical-align:top;">models_to_run</td><td style="vertical-align:top;">:</td><td><div><table><tr><td><div>^\\w+\\.py$</div></td></tr><tr><td><div>^default/\\w+\\.py$</div></td></tr><tr><td><div>^default/settings/\\w+\\.py$</div></td></tr></table></div></td></tr><tr><td style="font-weight:bold;vertical-align:top;">postprocessing</td><td style="vertical-align:top;">:</td><td><div><table></table></div></td></tr><tr><td style="font-weight:bold;vertical-align:top;">session_client</td><td style="vertical-align:top;">:</td><td><div>127.0.0.1</div></td></tr><tr><td style="font-weight:bold;vertical-align:top;">session_cookie_compression_level</td><td style="vertical-align:top;">:</td><td><div>None</div></td></tr><tr><td style="font-weight:bold;vertical-align:top;">session_cookie_expires</td><td style="vertical-align:top;">:</td><td><div>None</div></td></tr><tr><td style="font-weight:bold;vertical-align:top;">session_cookie_key</td><td style="vertical-align:top;">:</td><td><div>None</div></td></tr><tr><td style="font-weight:bold;vertical-align:top;">session_data_name</td><td style="vertical-align:top;">:</td><td><div>session_data_careseek2</div></td></tr><tr><td style="font-weight:bold;vertical-align:top;">session_file</td><td style="vertical-align:top;">:</td><td><div>&lt;open file &#x27;C:\\\\Users\\\\4524\\\\Documents\\\\web2py_win\\\\web2py\\\\applications\\\\CareSeek2\\\\sessions\\\\127.0.0.1-3f996de7-706e-46ce-8c3b-d1be0984d13e&#x27;, mode &#x27;rb+&#x27; at 0x079B5B78&gt;</div></td></tr><tr><td style="font-weight:bold;vertical-align:top;">session_filename</td><td style="vertical-align:top;">:</td><td><div>C:\\Users\\4524\\Documents\\web2py_win\\web2py\\applications\\CareSeek2\\sessions\\127.0.0.1-3f996de7-706e-46ce-8c3b-d1be0984d13e</div></td></tr><tr><td style="font-weight:bold;vertical-align:top;">session_hash</td><td style="vertical-align:top;">:</td><td><div>3ef689ef2f43af960c76bea9e074c182</div></td></tr><tr><td style="font-weight:bold;vertical-align:top;">session_id</td><td style="vertical-align:top;">:</td><td><div>127.0.0.1-3f996de7-706e-46ce-8c3b-d1be0984d13e</div></td></tr><tr><td style="font-weight:bold;vertical-align:top;">session_id_name</td><td style="vertical-align:top;">:</td><td><div>session_id_careseek2</div></td></tr><tr><td style="font-weight:bold;vertical-align:top;">session_locked</td><td style="vertical-align:top;">:</td><td><div>True</div></td></tr><tr><td style="font-weight:bold;vertical-align:top;">session_masterapp</td><td style="vertical-align:top;">:</td><td><div>CareSeek2</div></td></tr><tr><td style="font-weight:bold;vertical-align:top;">session_new</td><td style="vertical-align:top;">:</td><td><div>False</div></td></tr><tr><td style="font-weight:bold;vertical-align:top;">session_storage_type</td><td style="vertical-align:top;">:</td><td><div>file</div></td></tr><tr><td style="font-weight:bold;vertical-align:top;">status</td><td style="vertical-align:top;">:</td><td><div>200</div></td></tr><tr><td style="font-weight:bold;vertical-align:top;">subtitle</td><td style="vertical-align:top;">:</td><td><div></div></td></tr><tr><td style="font-weight:bold;vertical-align:top;">title</td><td style="vertical-align:top;">:</td><td><div>Careseek2</div></td></tr><tr><td style="font-weight:bold;vertical-align:top;">view</td><td style="vertical-align:top;">:</td><td><div>default/settings.html</div></td></tr></table></div>'
tRp100
sS'locals'
p101
(dp102
g4
S"r'C:\\Users\\4524\\Documents\\web2py_win\\web2py\\applications\\CareSeek2\\views\\default/settings.html'"
p103
sg6
S'r"response.write(\'<!-- saved from url=(0050)http:/...pt>\\r\\n\\r\\n</body>\\r\\n</html>\\r\\n\', escape=False)"'
p104
sssS'traceback'
p105
S'Traceback (most recent call last):\n  File "/home/mdipierro/make_web2py/web2py/gluon/restricted.py", line 219, in restricted\n  File "/home/mdipierro/make_web2py/web2py/gluon/restricted.py", line 202, in compile2\n  File "C:\\Users\\4524\\Documents\\web2py_win\\web2py\\applications\\CareSeek2\\views\\default/settings.html", line 63\n    if len(role)>0\n                 ^\nSyntaxError: invalid syntax\n'
p106
s.